(iannotator
Annotator
p0
(dp1
S'jump'
p2
I10000
sS'unknown'
p3
g3
sS'gtf_file'
p4
S'GCF_000001635.26_GRCm38.p6_genomic.chr19.gtf'
p5
sS'unknown_strand'
p6
S'?'
p7
sS'gtf_dict'
p8
(dp9
S'chr19'
p10
(dp11
I0
(dp12
sI20480000
(dp13
sI16810000
(dp14
sI13140000
(dp15
sI22670000
(dp16
sI9470000
(dp17
sI61040000
(dp18
sI56550000
(dp19
sI5800000
(dp20
sI4380000
(dp21
sI2130000
(dp22
sI740000
(dp23
sI18940000
(dp24
sI27050000
(dp25
sI15270000
(dp26
sI60130000
(dp27
sI52560000
(dp28
sI49720000
(dp29
sI55640000
(dp30
sI7930000
(dp31
sI4260000
(dp32
sI41670000
(dp33
sI21070000
(dp34
sI56760000
(dp35
sI56080000
(dp36
sI37880000
(dp37
sI23380000
(dp38
sI59220000
(dp39
sI54730000
(dp40
sI10740000
(dp41
sI13730000
(dp42
sI6250000
(dp43
sI1760000
(dp44
sI10060000
(dp45
sI25570000
(dp46
sI57500000
(dp47
sI6390000
(dp48
sI2720000
(dp49
sI27760000
(dp50
sI19530000
(dp51
sI58310000
(dp52
sI9830000
(dp53
sI15860000
(dp54
sI19710000
(dp55
sI850000
(dp56
sI12190000
(dp57
sI8520000
(dp58
sI21900000
(dp59
sI4850000
(dp60
sI13410000
(dp61
sI42140000
(dp62
sI34330000
(dp63
sI8920000
(dp64
sI4430000
(dp65
sI38470000
(dp66
sI14320000
(dp67
sI26280000
(dp68
sI10650000
(dp69
sI10190000
(dp70
sI60980000
(dp71
sI6980000
(dp72
sI28470000
(dp73
sI56490000
(dp74
sI12500000
(dp75
sI3310000
(dp76
sI20120000
(dp77
sI40900000
(dp78
sI16450000
(dp79
sI10930000
(dp80
sI12780000
(dp81
sI22610000
(dp82
sI60070000
(dp83
sI9110000
(dp84
sI55580000
(dp85
sI5440000
(dp86
sI4320000
(dp87
sI1770000
(dp88
sI18580000
(dp89
sI26990000
(dp90
sI35390000
(dp91
sI59160000
(dp92
sI54670000
(dp93
sI31720000
(dp94
sI29180000
(dp95
sI6190000
(dp96
sI1700000
(dp97
sI7570000
(dp98
sI1650000
(dp99
sI44860000
(dp100
sI51850000
(dp101
sI230000
(dp102
sI58250000
(dp103
sI17040000
(dp104
sI2840000
(dp105
sI13370000
(dp106
sI790000
(dp107
sI2390000
(dp108
sI50660000
(dp109
sI25510000
(dp110
sI6030000
(dp111
sI2360000
(dp112
sI27700000
(dp113
sI13350000
(dp114
sI19170000
(dp115
sI8860000
(dp116
sI4370000
(dp117
sI15500000
(dp118
sI29890000
(dp119
sI32310000
(dp120
sI28640000
(dp121
sI11600000
(dp122
sI60920000
(dp123
sI24970000
(dp124
sI56430000
(dp125
sI7950000
(dp126
sI820000
(dp127
sI34270000
(dp128
sI3460000
(dp129
sI54620000
(dp130
sI17630000
(dp131
sI31880000
(dp132
sI13960000
(dp133
sI26220000
(dp134
sI30770000
(dp135
sI60010000
(dp136
sI55520000
(dp137
sI47580000
(dp138
sI48890000
(dp139
sI59890000
(dp140
sI23430000
(dp141
sI19760000
(dp142
sI51080000
(dp143
sI16090000
(dp144
sI11100000
(dp145
sI53380000
(dp146
sI22550000
(dp147
sI54610000
(dp148
sI49710000
(dp149
sI25560000
(dp150
sI45220000
(dp151
sI21890000
(dp152
sI18220000
(dp153
sI37170000
(dp154
sI58190000
(dp155
sI14550000
(dp156
sI6830000
(dp157
sI10880000
(dp158
sI29120000
(dp159
sI27690000
(dp160
sI3540000
(dp161
sI590000
(dp162
sI20350000
(dp163
sI57280000
(dp164
sI52790000
(dp165
sI16680000
(dp166
sI2780000
(dp167
sI53970000
(dp168
sI46340000
(dp169
sI9340000
(dp170
sI4970000
(dp171
sI5670000
(dp172
sI60860000
(dp173
sI42960000
(dp174
sI27640000
(dp175
sI51880000
(dp176
sI18810000
(dp177
sI47080000
(dp178
sI15140000
(dp179
sI9350000
(dp180
sI11470000
(dp181
sI7800000
(dp182
sI11540000
(dp183
sI59950000
(dp184
sI55460000
(dp185
sI4130000
(dp186
sI2490000
(dp187
sI41420000
(dp188
sI23970000
(dp189
sI17270000
(dp190
sI34080000
(dp191
sI26160000
(dp192
sI59040000
(dp193
sI9930000
(dp194
sI6070000
(dp195
sI26740000
(dp196
sI7870000
(dp197
sI2590000
(dp198
sI39880000
(dp199
sI30540000
(dp200
sI15730000
(dp201
sI58130000
(dp202
sI12060000
(dp203
sI22490000
(dp204
sI670000
(dp205
sI8390000
(dp206
sI4720000
(dp207
sI4200000
(dp208
sI1050000
(dp209
sI17860000
(dp210
sI26870000
(dp211
sI57220000
(dp212
sI14190000
(dp213
sI48240000
(dp214
sI50780000
(dp215
sI10520000
(dp216
sI29060000
(dp217
sI6850000
(dp218
sI3180000
(dp219
sI530000
(dp220
sI60800000
(dp221
sI1990000
(dp222
sI12320000
(dp223
sI19990000
(dp224
sI3340000
(dp225
sI36800000
(dp226
sI23200000
(dp227
sI38350000
(dp228
sI33130000
(dp229
sI13490000
(dp230
sI29460000
(dp231
sI25390000
(dp232
sI25790000
(dp233
sI55400000
(dp234
sI50910000
(dp235
sI1640000
(dp236
sI27580000
(dp237
sI46420000
(dp238
sI18450000
(dp239
sI14780000
(dp240
sI29770000
(dp241
sI11110000
(dp242
sI58980000
(dp243
sI7440000
(dp244
sI11480000
(dp245
sI10500000
(dp246
sI50000000
(dp247
sI3770000
(dp248
sI45510000
(dp249
sI1520000
(dp250
sI20580000
(dp251
sI34150000
(dp252
sI32040000
(dp253
sI16910000
(dp254
sI13240000
(dp255
sI5620000
(dp256
sI58070000
(dp257
sI53580000
(dp258
sI30050000
(dp259
sI49090000
(dp260
sI5100000
(dp261
sI44600000
(dp262
sI26380000
(dp263
sI7810000
(dp264
sI22710000
(dp265
sI31130000
(dp266
sI19040000
(dp267
sI40720000
(dp268
sI35850000
(dp269
sI52670000
(dp270
sI48180000
(dp271
sI52660000
(dp272
sI53150000
(dp273
sI39200000
(dp274
sI8030000
(dp275
sI34710000
(dp276
sI4360000
(dp277
sI45100000
(dp278
sI690000
(dp279
sI60740000
(dp280
sI56250000
(dp281
sI17500000
(dp282
sI37050000
(dp283
sI51760000
(dp284
sI47270000
(dp285
sI13830000
(dp286
sI42780000
(dp287
sI38290000
(dp288
sI51120000
(dp289
sI29000000
(dp290
sI47450000
(dp291
sI56700000
(dp292
sI59830000
(dp293
sI23300000
(dp294
sI41430000
(dp295
sI11350000
(dp296
sI50850000
(dp297
sI40110000
(dp298
sI46360000
(dp299
sI41870000
(dp300
sI15960000
(dp301
sI23140000
(dp302
sI12290000
(dp303
sI8620000
(dp304
sI25330000
(dp305
sI58920000
(dp306
sI54430000
(dp307
sI4950000
(dp308
sI49940000
(dp309
sI35920000
(dp310
sI45450000
(dp311
sI1280000
(dp312
sI27520000
(dp313
sI40960000
(dp314
sI18090000
(dp315
sI14420000
(dp316
sI29710000
(dp317
sI57580000
(dp318
sI10750000
(dp319
sI58010000
(dp320
sI53520000
(dp321
sI48040000
(dp322
sI1180000
(dp323
sI44540000
(dp324
sI44370000
(dp325
sI35560000
(dp326
sI40700000
(dp327
sI23850000
(dp328
sI16550000
(dp329
sI57100000
(dp330
sI12880000
(dp331
sI26040000
(dp332
sI52610000
(dp333
sI48120000
(dp334
sI9210000
(dp335
sI43630000
(dp336
sI39140000
(dp337
sI5540000
(dp338
sI48710000
(dp339
sI1870000
(dp340
sI18680000
(dp341
sI30420000
(dp342
sI56190000
(dp343
sI12200000
(dp344
sI51700000
(dp345
sI15010000
(dp346
sI47210000
(dp347
sI42720000
(dp348
sI11340000
(dp349
sI22370000
(dp350
sI38230000
(dp351
sI7670000
(dp352
sI44960000
(dp353
sI34800000
(dp354
sI59770000
(dp355
sI41290000
(dp356
sI55280000
(dp357
sI50790000
(dp358
sI6600000
(dp359
sI37620000
(dp360
sI26750000
(dp361
sI39620000
(dp362
sI41810000
(dp363
sI33950000
(dp364
sI9800000
(dp365
sI8460000
(dp366
sI6130000
(dp367
sI58860000
(dp368
sI54370000
(dp369
sI22940000
(dp370
sI20890000
(dp371
sI49880000
(dp372
sI45390000
(dp373
sI19270000
(dp374
sI15600000
(dp375
sI23080000
(dp376
sI31920000
(dp377
sI11930000
(dp378
sI57950000
(dp379
sI28740000
(dp380
sI4790000
(dp381
sI48970000
(dp382
sI4590000
(dp383
sI44480000
(dp384
sI3070000
(dp385
sI39990000
(dp386
sI21400000
(dp387
sI27460000
(dp388
sI35500000
(dp389
sI17730000
(dp390
sI34540000
(dp391
sI29650000
(dp392
sI57040000
(dp393
sI30870000
(dp394
sI52550000
(dp395
sI8560000
(dp396
sI48060000
(dp397
sI53340000
(dp398
sI27200000
(dp399
sI11360000
(dp400
sI3050000
(dp401
sI19860000
(dp402
sI23790000
(dp403
sI60620000
(dp404
sI16190000
(dp405
sI56130000
(dp406
sI12140000
(dp407
sI51640000
(dp408
sI12520000
(dp409
sI25980000
(dp410
sI47150000
(dp411
sI42660000
(dp412
sI8850000
(dp413
sI5180000
(dp414
sI38410000
(dp415
sI1510000
(dp416
sI54820000
(dp417
sI55220000
(dp418
sI18320000
(dp419
sI30360000
(dp420
sI50730000
(dp421
sI46240000
(dp422
sI14650000
(dp423
sI51940000
(dp424
sI22310000
(dp425
sI32770000
(dp426
sI7310000
(dp427
sI55560000
(dp428
sI24120000
(dp429
sI34740000
(dp430
sI58800000
(dp431
sI54310000
(dp432
sI10320000
(dp433
sI20450000
(dp434
sI49820000
(dp435
sI45330000
(dp436
sI16780000
(dp437
sI26690000
(dp438
sI6770000
(dp439
sI56300000
(dp440
sI31860000
(dp441
sI13110000
(dp442
sI9440000
(dp443
sI28880000
(dp444
sI57890000
(dp445
sI5770000
(dp446
sI53400000
(dp447
sI48910000
(dp448
sI2100000
(dp449
sI31070000
(dp450
sI44420000
(dp451
sI39930000
(dp452
sI18910000
(dp453
sI35440000
(dp454
sI30950000
(dp455
sI15240000
(dp456
sI23020000
(dp457
sI52530000
(dp458
sI56980000
(dp459
sI52490000
(dp460
sI8500000
(dp461
sI28380000
(dp462
sI4730000
(dp463
sI48000000
(dp464
sI43510000
(dp465
sI45190000
(dp466
sI39020000
(dp467
sI34530000
(dp468
sI21040000
(dp469
sI37640000
(dp470
sI17370000
(dp471
sI60560000
(dp472
sI13700000
(dp473
sI29590000
(dp474
sI12080000
(dp475
sI51580000
(dp476
sI10030000
(dp477
sI42600000
(dp478
sI38110000
(dp479
sI47320000
(dp480
sI42020000
(dp481
sI37000000
(dp482
sI33620000
(dp483
sI2690000
(dp484
sI59260000
(dp485
sI19500000
(dp486
sI54450000
(dp487
sI59650000
(dp488
sI55160000
(dp489
sI15830000
(dp490
sI50670000
(dp491
sI46180000
(dp492
sI12160000
(dp493
sI25920000
(dp494
sI41690000
(dp495
sI37200000
(dp496
sI49450000
(dp497
sI45780000
(dp498
sI28110000
(dp499
sI58740000
(dp500
sI42110000
(dp501
sI54250000
(dp502
sI49760000
(dp503
sI38440000
(dp504
sI9820000
(dp505
sI45270000
(dp506
sI40780000
(dp507
sI14290000
(dp508
sI36290000
(dp509
sI450000
(dp510
sI10620000
(dp511
sI22250000
(dp512
sI49980000
(dp513
sI6950000
(dp514
sI55730000
(dp515
sI57830000
(dp516
sI3280000
(dp517
sI34680000
(dp518
sI48850000
(dp519
sI44360000
(dp520
sI35380000
(dp521
sI16420000
(dp522
sI36870000
(dp523
sI33230000
(dp524
sI21910000
(dp525
sI50040000
(dp526
sI8340000
(dp527
sI56920000
(dp528
sI52430000
(dp529
sI5410000
(dp530
sI47940000
(dp531
sI34950000
(dp532
sI1740000
(dp533
sI31010000
(dp534
sI38960000
(dp535
sI39030000
(dp536
sI35360000
(dp537
sI22960000
(dp538
sI46450000
(dp539
sI60500000
(dp540
sI56010000
(dp541
sI31690000
(dp542
sI51520000
(dp543
sI47030000
(dp544
sI7540000
(dp545
sI45630000
(dp546
sI42540000
(dp547
sI38050000
(dp548
sI24350000
(dp549
sI57560000
(dp550
sI20680000
(dp551
sI6860000
(dp552
sI37490000
(dp553
sI59590000
(dp554
sI55100000
(dp555
sI13340000
(dp556
sI6620000
(dp557
sI46120000
(dp558
sI41630000
(dp559
sI9670000
(dp560
sI6000000
(dp561
sI41960000
(dp562
sI23670000
(dp563
sI2330000
(dp564
sI58680000
(dp565
sI19140000
(dp566
sI33910000
(dp567
sI54190000
(dp568
sI49700000
(dp569
sI15470000
(dp570
sI45210000
(dp571
sI32280000
(dp572
sI25860000
(dp573
sI4890000
(dp574
sI31740000
(dp575
sI28610000
(dp576
sI24940000
(dp577
sI28050000
(dp578
sI57770000
(dp579
sI53280000
(dp580
sI21270000
(dp581
sI4800000
(dp582
sI44300000
(dp583
sI17600000
(dp584
sI30240000
(dp585
sI13930000
(dp586
sI30830000
(dp587
sI26340000
(dp588
sI30740000
(dp589
sI52910000
(dp590
sI6590000
(dp591
sI56860000
(dp592
sI52370000
(dp593
sI2920000
(dp594
sI24380000
(dp595
sI55900000
(dp596
sI19730000
(dp597
sI34410000
(dp598
sI16060000
(dp599
sI26570000
(dp600
sI20940000
(dp601
sI53350000
(dp602
sI60440000
(dp603
sI55950000
(dp604
sI56640000
(dp605
sI49680000
(dp606
sI8280000
(dp607
sI46970000
(dp608
sI25530000
(dp609
sI42480000
(dp610
sI37990000
(dp611
sI21860000
(dp612
sI20710000
(dp613
sI18190000
(dp614
sI59530000
(dp615
sI14520000
(dp616
sI12660000
(dp617
sI11050000
(dp618
sI50550000
(dp619
sI6560000
(dp620
sI31330000
(dp621
sI10440000
(dp622
sI46060000
(dp623
sI41570000
(dp624
sI27660000
(dp625
sI45570000
(dp626
sI37080000
(dp627
sI32590000
(dp628
sI8590000
(dp629
sI3510000
(dp630
sI58120000
(dp631
sI40800000
(dp632
sI47760000
(dp633
sI58620000
(dp634
sI16650000
(dp635
sI10140000
(dp636
sI49640000
(dp637
sI45150000
(dp638
sI1160000
(dp639
sI29470000
(dp640
sI40660000
(dp641
sI50270000
(dp642
sI46600000
(dp643
sI41900000
(dp644
sI48100000
(dp645
sI1970000
(dp646
sI57710000
(dp647
sI53220000
(dp648
sI39260000
(dp649
sI23610000
(dp650
sI48730000
(dp651
sI10070000
(dp652
sI44240000
(dp653
sI15110000
(dp654
sI39750000
(dp655
sI35260000
(dp656
sI11440000
(dp657
sI46280000
(dp658
sI7770000
(dp659
sI61290000
(dp660
sI56800000
(dp661
sI24580000
(dp662
sI48470000
(dp663
sI52310000
(dp664
sI47820000
(dp665
sI430000
(dp666
sI43330000
(dp667
sI38840000
(dp668
sI17240000
(dp669
sI9700000
(dp670
sI34350000
(dp671
sI34050000
(dp672
sI9900000
(dp673
sI42610000
(dp674
sI55890000
(dp675
sI11900000
(dp676
sI26710000
(dp677
sI42420000
(dp678
sI43520000
(dp679
sI24320000
(dp680
sI39560000
(dp681
sI33440000
(dp682
sI39850000
(dp683
sI15700000
(dp684
sI26510000
(dp685
sI59470000
(dp686
sI12030000
(dp687
sI54980000
(dp688
sI50490000
(dp689
sI6500000
(dp690
sI28840000
(dp691
sI49180000
(dp692
sI41510000
(dp693
sI25170000
(dp694
sI32530000
(dp695
sI1020000
(dp696
sI41130000
(dp697
sI18780000
(dp698
sI17830000
(dp699
sI58560000
(dp700
sI54070000
(dp701
sI10080000
(dp702
sI14160000
(dp703
sI22840000
(dp704
sI49580000
(dp705
sI45090000
(dp706
sI10490000
(dp707
sI40600000
(dp708
sI6820000
(dp709
sI35270000
(dp710
sI31620000
(dp711
sI3150000
(dp712
sI58290000
(dp713
sI19960000
(dp714
sI27220000
(dp715
sI53160000
(dp716
sI48670000
(dp717
sI36770000
(dp718
sI3750000
(dp719
sI39690000
(dp720
sI33100000
(dp721
sI29410000
(dp722
sI35200000
(dp723
sI29430000
(dp724
sI5280000
(dp725
sI21360000
(dp726
sI61230000
(dp727
sI56740000
(dp728
sI1610000
(dp729
sI52250000
(dp730
sI8260000
(dp731
sI21000000
(dp732
sI18420000
(dp733
sI33790000
(dp734
sI38780000
(dp735
sI14750000
(dp736
sI52040000
(dp737
sI5260000
(dp738
sI20820000
(dp739
sI60320000
(dp740
sI27890000
(dp741
sI55830000
(dp742
sI51340000
(dp743
sI3740000
(dp744
sI38170000
(dp745
sI46850000
(dp746
sI42360000
(dp747
sI70000
(dp748
sI33380000
(dp749
sI220000
(dp750
sI37360000
(dp751
sI30120000
(dp752
sI54170000
(dp753
sI59410000
(dp754
sI30020000
(dp755
sI42550000
(dp756
sI11720000
(dp757
sI50430000
(dp758
sI6440000
(dp759
sI45940000
(dp760
sI26350000
(dp761
sI41450000
(dp762
sI2200000
(dp763
sI24260000
(dp764
sI32470000
(dp765
sI6710000
(dp766
sI19010000
(dp767
sI19000000
(dp768
sI15340000
(dp769
sI26450000
(dp770
sI58500000
(dp771
sI52630000
(dp772
sI49520000
(dp773
sI1040000
(dp774
sI8000000
(dp775
sI38880000
(dp776
sI4330000
(dp777
sI27070000
(dp778
sI660000
(dp779
sI110000
(dp780
sI57590000
(dp781
sI13600000
(dp782
sI18950000
(dp783
sI17470000
(dp784
sI48610000
(dp785
sI4620000
(dp786
sI13800000
(dp787
sI12540000
(dp788
sI8190000
(dp789
sI44120000
(dp790
sI51090000
(dp791
sI35140000
(dp792
sI30450000
(dp793
sI47420000
(dp794
sI35210000
(dp795
sI23270000
(dp796
sI56680000
(dp797
sI52190000
(dp798
sI19600000
(dp799
sI27160000
(dp800
sI47700000
(dp801
sI43210000
(dp802
sI15930000
(dp803
sI38720000
(dp804
sI34230000
(dp805
sI12260000
(dp806
sI29350000
(dp807
sI29070000
(dp808
sI60260000
(dp809
sI25400000
(dp810
sI21300000
(dp811
sI55770000
(dp812
sI11780000
(dp813
sI51280000
(dp814
sI21730000
(dp815
sI46790000
(dp816
sI42300000
(dp817
sI18060000
(dp818
sI3010000
(dp819
sI21170000
(dp820
sI33320000
(dp821
sI28830000
(dp822
sI14390000
(dp823
sI10410000
(dp824
sI10720000
(dp825
sI5200000
(dp826
sI59350000
(dp827
sI54860000
(dp828
sI48010000
(dp829
sI50370000
(dp830
sI45880000
(dp831
sI44340000
(dp832
sI27870000
(dp833
sI41390000
(dp834
sI36900000
(dp835
sI20190000
(dp836
sI32410000
(dp837
sI60680000
(dp838
sI16520000
(dp839
sI30060000
(dp840
sI12850000
(dp841
sI53950000
(dp842
sI49460000
(dp843
sI50140000
(dp844
sI52730000
(dp845
sI44970000
(dp846
sI40480000
(dp847
sI25990000
(dp848
sI31500000
(dp849
sI22320000
(dp850
sI34440000
(dp851
sI27010000
(dp852
sI22520000
(dp853
sI18650000
(dp854
sI39900000
(dp855
sI14980000
(dp856
sI26390000
(dp857
sI53040000
(dp858
sI48550000
(dp859
sI4560000
(dp860
sI11310000
(dp861
sI44060000
(dp862
sI39570000
(dp863
sI48600000
(dp864
sI28580000
(dp865
sI26100000
(dp866
sI3970000
(dp867
sI61110000
(dp868
sI41260000
(dp869
sI10290000
(dp870
sI56620000
(dp871
sI52130000
(dp872
sI37590000
(dp873
sI47640000
(dp874
sI43150000
(dp875
sI33920000
(dp876
sI12480000
(dp877
sI38660000
(dp878
sI34170000
(dp879
sI9770000
(dp880
sI6100000
(dp881
sI35150000
(dp882
sI60200000
(dp883
sI55710000
(dp884
sI43390000
(dp885
sI51220000
(dp886
sI46730000
(dp887
sI19240000
(dp888
sI37340000
(dp889
sI42240000
(dp890
sI42120000
(dp891
sI15570000
(dp892
sI33260000
(dp893
sI32380000
(dp894
sI8810000
(dp895
sI8230000
(dp896
sI59290000
(dp897
sI54800000
(dp898
sI25040000
(dp899
sI51960000
(dp900
sI45820000
(dp901
sI41330000
(dp902
sI36840000
(dp903
sI17700000
(dp904
sI43910000
(dp905
sI4830000
(dp906
sI21340000
(dp907
sI34510000
(dp908
sI58380000
(dp909
sI30840000
(dp910
sI15380000
(dp911
sI53890000
(dp912
sI59910000
(dp913
sI27170000
(dp914
sI44910000
(dp915
sI920000
(dp916
sI40420000
(dp917
sI23500000
(dp918
sI27810000
(dp919
sI35930000
(dp920
sI19830000
(dp921
sI16160000
(dp922
sI30000000
(dp923
sI57470000
(dp924
sI13480000
(dp925
sI52980000
(dp926
sI53450000
(dp927
sI48490000
(dp928
sI44000000
(dp929
sI8820000
(dp930
sI42430000
(dp931
sI39510000
(dp932
sI35020000
(dp933
sI25630000
(dp934
sI1480000
(dp935
sI24140000
(dp936
sI61050000
(dp937
sI38770000
(dp938
sI56560000
(dp939
sI52070000
(dp940
sI14620000
(dp941
sI26330000
(dp942
sI56580000
(dp943
sI43090000
(dp944
sI51910000
(dp945
sI7280000
(dp946
sI38760000
(dp947
sI51570000
(dp948
sI24090000
(dp949
sI60140000
(dp950
sI7790000
(dp951
sI55650000
(dp952
sI20420000
(dp953
sI30710000
(dp954
sI51160000
(dp955
sI46670000
(dp956
sI16750000
(dp957
sI42180000
(dp958
sI37690000
(dp959
sI33560000
(dp960
sI12420000
(dp961
sI9410000
(dp962
sI59230000
(dp963
sI5740000
(dp964
sI35090000
(dp965
sI54740000
(dp966
sI50250000
(dp967
sI6260000
(dp968
sI2070000
(dp969
sI45760000
(dp970
sI41270000
(dp971
sI18880000
(dp972
sI37280000
(dp973
sI32290000
(dp974
sI15210000
(dp975
sI42290000
(dp976
sI52500000
(dp977
sI8750000
(dp978
sI58320000
(dp979
sI48830000
(dp980
sI53830000
(dp981
sI49340000
(dp982
sI45160000
(dp983
sI21180000
(dp984
sI40360000
(dp985
sI35870000
(dp986
sI21010000
(dp987
sI31380000
(dp988
sI17340000
(dp989
sI54090000
(dp990
sI13670000
(dp991
sI21510000
(dp992
sI57410000
(dp993
sI52920000
(dp994
sI30480000
(dp995
sI46040000
(dp996
sI48430000
(dp997
sI43940000
(dp998
sI26810000
(dp999
sI39450000
(dp1000
sI34960000
(dp1001
sI33010000
(dp1002
sI2660000
(dp1003
sI7270000
(dp1004
sI19470000
(dp1005
sI60990000
(dp1006
sI56500000
(dp1007
sI15800000
(dp1008
sI9460000
(dp1009
sI52010000
(dp1010
sI61020000
(dp1011
sI47520000
(dp1012
sI12130000
(dp1013
sI43030000
(dp1014
sI6010000
(dp1015
sI38540000
(dp1016
sI49420000
(dp1017
sI32130000
(dp1018
sI29560000
(dp1019
sI45750000
(dp1020
sI25070000
(dp1021
sI42080000
(dp1022
sI3600000
(dp1023
sI60080000
(dp1024
sI55590000
(dp1025
sI17930000
(dp1026
sI46610000
(dp1027
sI14260000
(dp1028
sI26270000
(dp1029
sI23730000
(dp1030
sI13320000
(dp1031
sI33140000
(dp1032
sI10590000
(dp1033
sI6920000
(dp1034
sI28460000
(dp1035
sI59170000
(dp1036
sI3250000
(dp1037
sI54680000
(dp1038
sI50190000
(dp1039
sI20060000
(dp1040
sI30650000
(dp1041
sI41210000
(dp1042
sI16390000
(dp1043
sI36720000
(dp1044
sI32230000
(dp1045
sI33200000
(dp1046
sI43080000
(dp1047
sI2950000
(dp1048
sI23250000
(dp1049
sI9050000
(dp1050
sI58260000
(dp1051
sI53770000
(dp1052
sI5380000
(dp1053
sI24790000
(dp1054
sI44790000
(dp1055
sI1710000
(dp1056
sI40300000
(dp1057
sI10610000
(dp1058
sI35810000
(dp1059
sI39000000
(dp1060
sI37220000
(dp1061
sI31320000
(dp1062
sI35330000
(dp1063
sI11180000
(dp1064
sI29170000
(dp1065
sI52860000
(dp1066
sI27990000
(dp1067
sI43880000
(dp1068
sI39390000
(dp1069
sI3840000
(dp1070
sI31360000
(dp1071
sI34900000
(dp1072
sI53960000
(dp1073
sI20650000
(dp1074
sI59710000
(dp1075
sI16980000
(dp1076
sI23310000
(dp1077
sI60930000
(dp1078
sI56440000
(dp1079
sI13310000
(dp1080
sI51950000
(dp1081
sI47460000
(dp1082
sI50600000
(dp1083
sI35740000
(dp1084
sI42970000
(dp1085
sI54700000
(dp1086
sI38480000
(dp1087
sI5970000
(dp1088
sI29500000
(dp1089
sI54880000
(dp1090
sI22780000
(dp1091
sI37930000
(dp1092
sI60020000
(dp1093
sI19110000
(dp1094
sI55530000
(dp1095
sI51040000
(dp1096
sI55440000
(dp1097
sI15440000
(dp1098
sI9400000
(dp1099
sI46550000
(dp1100
sI42060000
(dp1101
sI32250000
(dp1102
sI61190000
(dp1103
sI37570000
(dp1104
sI33080000
(dp1105
sI49060000
(dp1106
sI32070000
(dp1107
sI24910000
(dp1108
sI6650000
(dp1109
sI59110000
(dp1110
sI21240000
(dp1111
sI24020000
(dp1112
sI50130000
(dp1113
sI17570000
(dp1114
sI41150000
(dp1115
sI36660000
(dp1116
sI13900000
(dp1117
sI26210000
(dp1118
sI32170000
(dp1119
sI10230000
(dp1120
sI23900000
(dp1121
sI28680000
(dp1122
sI27040000
(dp1123
sI28400000
(dp1124
sI58200000
(dp1125
sI53710000
(dp1126
sI23370000
(dp1127
sI49220000
(dp1128
sI44730000
(dp1129
sI35400000
(dp1130
sI29830000
(dp1131
sI19700000
(dp1132
sI30590000
(dp1133
sI40240000
(dp1134
sI35750000
(dp1135
sI16030000
(dp1136
sI31260000
(dp1137
sI32840000
(dp1138
sI2060000
(dp1139
sI46900000
(dp1140
sI57290000
(dp1141
sI49650000
(dp1142
sI48310000
(dp1143
sI25500000
(dp1144
sI34970000
(dp1145
sI43820000
(dp1146
sI39330000
(dp1147
sI58400000
(dp1148
sI21830000
(dp1149
sI34840000
(dp1150
sI18160000
(dp1151
sI37160000
(dp1152
sI21370000
(dp1153
sI14490000
(dp1154
sI60870000
(dp1155
sI16880000
(dp1156
sI56380000
(dp1157
sI10820000
(dp1158
sI49590000
(dp1159
sI26120000
(dp1160
sI47400000
(dp1161
sI42910000
(dp1162
sI27630000
(dp1163
sI38420000
(dp1164
sI59270000
(dp1165
sI3480000
(dp1166
sI21060000
(dp1167
sI29440000
(dp1168
sI24950000
(dp1169
sI54130000
(dp1170
sI20290000
(dp1171
sI59960000
(dp1172
sI16620000
(dp1173
sI13010000
(dp1174
sI55470000
(dp1175
sI50980000
(dp1176
sI12950000
(dp1177
sI42000000
(dp1178
sI50240000
(dp1179
sI35680000
(dp1180
sI33020000
(dp1181
sI46570000
(dp1182
sI22420000
(dp1183
sI37870000
(dp1184
sI23260000
(dp1185
sI10570000
(dp1186
sI18750000
(dp1187
sI50070000
(dp1188
sI45580000
(dp1189
sI15080000
(dp1190
sI29820000
(dp1191
sI41090000
(dp1192
sI36600000
(dp1193
sI11410000
(dp1194
sI32110000
(dp1195
sI44850000
(dp1196
sI28220000
(dp1197
sI32010000
(dp1198
sI45030000
(dp1199
sI58140000
(dp1200
sI400000
(dp1201
sI23960000
(dp1202
sI44670000
(dp1203
sI40180000
(dp1204
sI17210000
(dp1205
sI35690000
(dp1206
sI31200000
(dp1207
sI13540000
(dp1208
sI46630000
(dp1209
sI22220000
(dp1210
sI9870000
(dp1211
sI7560000
(dp1212
sI57230000
(dp1213
sI47160000
(dp1214
sI38580000
(dp1215
sI52740000
(dp1216
sI48250000
(dp1217
sI43490000
(dp1218
sI43760000
(dp1219
sI39270000
(dp1220
sI39820000
(dp1221
sI40770000
(dp1222
sI15670000
(dp1223
sI21310000
(dp1224
sI60810000
(dp1225
sI12000000
(dp1226
sI53200000
(dp1227
sI12330000
(dp1228
sI51830000
(dp1229
sI8330000
(dp1230
sI3350000
(dp1231
sI42850000
(dp1232
sI45620000
(dp1233
sI34910000
(dp1234
sI33870000
(dp1235
sI990000
(dp1236
sI38280000
(dp1237
sI6380000
(dp1238
sI59900000
(dp1239
sI14130000
(dp1240
sI11420000
(dp1241
sI4030000
(dp1242
sI50920000
(dp1243
sI46430000
(dp1244
sI10460000
(dp1245
sI39290000
(dp1246
sI41940000
(dp1247
sI26290000
(dp1248
sI37450000
(dp1249
sI27270000
(dp1250
sI32960000
(dp1251
sI23600000
(dp1252
sI31240000
(dp1253
sI23980000
(dp1254
sI19930000
(dp1255
sI58990000
(dp1256
sI54500000
(dp1257
sI36740000
(dp1258
sI2710000
(dp1259
sI50010000
(dp1260
sI1530000
(dp1261
sI33070000
(dp1262
sI41030000
(dp1263
sI36540000
(dp1264
sI32050000
(dp1265
sI35620000
(dp1266
sI27560000
(dp1267
sI5510000
(dp1268
sI23070000
(dp1269
sI5250000
(dp1270
sI55040000
(dp1271
sI58080000
(dp1272
sI1580000
(dp1273
sI37810000
(dp1274
sI53590000
(dp1275
sI49100000
(dp1276
sI18390000
(dp1277
sI17010000
(dp1278
sI620000
(dp1279
sI40120000
(dp1280
sI14720000
(dp1281
sI9280000
(dp1282
sI35630000
(dp1283
sI31140000
(dp1284
sI31530000
(dp1285
sI26650000
(dp1286
sI22160000
(dp1287
sI10120000
(dp1288
sI7380000
(dp1289
sI21710000
(dp1290
sI45020000
(dp1291
sI57170000
(dp1292
sI13180000
(dp1293
sI52680000
(dp1294
sI48190000
(dp1295
sI43700000
(dp1296
sI40000
(dp1297
sI13660000
(dp1298
sI39210000
(dp1299
sI56520000
(dp1300
sI34720000
(dp1301
sI37330000
(dp1302
sI30230000
(dp1303
sI25740000
(dp1304
sI33660000
(dp1305
sI5610000
(dp1306
sI21250000
(dp1307
sI60750000
(dp1308
sI29990000
(dp1309
sI12270000
(dp1310
sI51770000
(dp1311
sI7780000
(dp1312
sI26320000
(dp1313
sI28280000
(dp1314
sI3290000
(dp1315
sI42790000
(dp1316
sI22650000
(dp1317
sI38300000
(dp1318
sI33810000
(dp1319
sI18980000
(dp1320
sI40710000
(dp1321
sI24830000
(dp1322
sI20340000
(dp1323
sI15310000
(dp1324
sI15850000
(dp1325
sI60550000
(dp1326
sI55350000
(dp1327
sI52600000
(dp1328
sI42900000
(dp1329
sI6870000
(dp1330
sI46370000
(dp1331
sI2380000
(dp1332
sI7970000
(dp1333
sI41880000
(dp1334
sI37390000
(dp1335
sI45260000
(dp1336
sI24610000
(dp1337
sI32900000
(dp1338
sI28410000
(dp1339
sI630000
(dp1340
sI23920000
(dp1341
sI19430000
(dp1342
sI17440000
(dp1343
sI26800000
(dp1344
sI10450000
(dp1345
sI49950000
(dp1346
sI13770000
(dp1347
sI1470000
(dp1348
sI40970000
(dp1349
sI51060000
(dp1350
sI39230000
(dp1351
sI36480000
(dp1352
sI31990000
(dp1353
sI26910000
(dp1354
sI23010000
(dp1355
sI43720000
(dp1356
sI460000
(dp1357
sI18520000
(dp1358
sI14030000
(dp1359
sI19570000
(dp1360
sI53530000
(dp1361
sI9540000
(dp1362
sI5050000
(dp1363
sI37960000
(dp1364
sI15900000
(dp1365
sI12890000
(dp1366
sI560000
(dp1367
sI40060000
(dp1368
sI32710000
(dp1369
sI57020000
(dp1370
sI60220000
(dp1371
sI31080000
(dp1372
sI26590000
(dp1373
sI29040000
(dp1374
sI25320000
(dp1375
sI22100000
(dp1376
sI25370000
(dp1377
sI57110000
(dp1378
sI13120000
(dp1379
sI8630000
(dp1380
sI1220000
(dp1381
sI37750000
(dp1382
sI48130000
(dp1383
sI4140000
(dp1384
sI43640000
(dp1385
sI18030000
(dp1386
sI39150000
(dp1387
sI34660000
(dp1388
sI53980000
(dp1389
sI9220000
(dp1390
sI30170000
(dp1391
sI25680000
(dp1392
sI10690000
(dp1393
sI21190000
(dp1394
sI60690000
(dp1395
sI16700000
(dp1396
sI47980000
(dp1397
sI31890000
(dp1398
sI51710000
(dp1399
sI7720000
(dp1400
sI25480000
(dp1401
sI3230000
(dp1402
sI44310000
(dp1403
sI42730000
(dp1404
sI38240000
(dp1405
sI20160000
(dp1406
sI23840000
(dp1407
sI33750000
(dp1408
sI16490000
(dp1409
sI56690000
(dp1410
sI24770000
(dp1411
sI20280000
(dp1412
sI33300000
(dp1413
sI46510000
(dp1414
sI15790000
(dp1415
sI55290000
(dp1416
sI11300000
(dp1417
sI29630000
(dp1418
sI6810000
(dp1419
sI46310000
(dp1420
sI2320000
(dp1421
sI25960000
(dp1422
sI38460000
(dp1423
sI7900000
(dp1424
sI1810000
(dp1425
sI28350000
(dp1426
sI23860000
(dp1427
sI18620000
(dp1428
sI30410000
(dp1429
sI19370000
(dp1430
sI2890000
(dp1431
sI14880000
(dp1432
sI14950000
(dp1433
sI19400000
(dp1434
sI10390000
(dp1435
sI49890000
(dp1436
sI5900000
(dp1437
sI52240000
(dp1438
sI42840000
(dp1439
sI1410000
(dp1440
sI40910000
(dp1441
sI48570000
(dp1442
sI36420000
(dp1443
sI31930000
(dp1444
sI47410000
(dp1445
sI44900000
(dp1446
sI24550000
(dp1447
sI27440000
(dp1448
sI22950000
(dp1449
sI41230000
(dp1450
sI18460000
(dp1451
sI13970000
(dp1452
sI53470000
(dp1453
sI37560000
(dp1454
sI36980000
(dp1455
sI4990000
(dp1456
sI44490000
(dp1457
sI33890000
(dp1458
sI40000000
(dp1459
sI35510000
(dp1460
sI9740000
(dp1461
sI39170000
(dp1462
sI31020000
(dp1463
sI26530000
(dp1464
sI26550000
(dp1465
sI22040000
(dp1466
sI17550000
(dp1467
sI2400000
(dp1468
sI20880000
(dp1469
sI57050000
(dp1470
sI13060000
(dp1471
sI8570000
(dp1472
sI19210000
(dp1473
sI48070000
(dp1474
sI4080000
(dp1475
sI43580000
(dp1476
sI15540000
(dp1477
sI12830000
(dp1478
sI38130000
(dp1479
sI30110000
(dp1480
sI32350000
(dp1481
sI25620000
(dp1482
sI21130000
(dp1483
sI49160000
(dp1484
sI25260000
(dp1485
sI60630000
(dp1486
sI16640000
(dp1487
sI12150000
(dp1488
sI4530000
(dp1489
sI51650000
(dp1490
sI3170000
(dp1491
sI860000
(dp1492
sI27450000
(dp1493
sI42670000
(dp1494
sI55380000
(dp1495
sI38180000
(dp1496
sI17670000
(dp1497
sI33690000
(dp1498
sI29200000
(dp1499
sI34480000
(dp1500
sI29640000
(dp1501
sI840000
(dp1502
sI20220000
(dp1503
sI30810000
(dp1504
sI55230000
(dp1505
sI11240000
(dp1506
sI6750000
(dp1507
sI27140000
(dp1508
sI1110000
(dp1509
sI46250000
(dp1510
sI2260000
(dp1511
sI41760000
(dp1512
sI23470000
(dp1513
sI37270000
(dp1514
sI32780000
(dp1515
sI19800000
(dp1516
sI34020000
(dp1517
sI28290000
(dp1518
sI23800000
(dp1519
sI16130000
(dp1520
sI19310000
(dp1521
sI58810000
(dp1522
sI14820000
(dp1523
sI12460000
(dp1524
sI25970000
(dp1525
sI10330000
(dp1526
sI49830000
(dp1527
sI5840000
(dp1528
sI8790000
(dp1529
sI1350000
(dp1530
sI40850000
(dp1531
sI5120000
(dp1532
sI28160000
(dp1533
sI1450000
(dp1534
sI57600000
(dp1535
sI18260000
(dp1536
sI30350000
(dp1537
sI57900000
(dp1538
sI9420000
(dp1539
sI14590000
(dp1540
sI4930000
(dp1541
sI440000
(dp1542
sI31400000
(dp1543
sI1820000
(dp1544
sI7250000
(dp1545
sI3580000
(dp1546
sI21980000
(dp1547
sI56990000
(dp1548
sI20390000
(dp1549
sI8510000
(dp1550
sI4020000
(dp1551
sI16720000
(dp1552
sI6200000
(dp1553
sI54010000
(dp1554
sI9380000
(dp1555
sI39110000
(dp1556
sI5710000
(dp1557
sI60570000
(dp1558
sI12090000
(dp1559
sI2040000
(dp1560
sI51540000
(dp1561
sI7600000
(dp1562
sI3110000
(dp1563
sI18850000
(dp1564
sI15180000
(dp1565
sI2530000
(dp1566
sI52470000
(dp1567
sI59660000
(dp1568
sI48800000
(dp1569
sI25200000
(dp1570
sI55170000
(dp1571
sI6690000
(dp1572
sI270000
(dp1573
sI24650000
(dp1574
sI500000
(dp1575
sI17150000
(dp1576
sI17310000
(dp1577
sI54600000
(dp1578
sI29580000
(dp1579
sI58750000
(dp1580
sI1010000
(dp1581
sI10270000
(dp1582
sI9970000
(dp1583
sI1290000
(dp1584
sI6300000
(dp1585
sI21530000
(dp1586
sI2630000
(dp1587
sI19440000
(dp1588
sI44200000
(dp1589
sI15770000
(dp1590
sI57840000
(dp1591
sI9360000
(dp1592
sI12100000
(dp1593
sI36150000
(dp1594
sI380000
(dp1595
sI57350000
(dp1596
sI49390000
(dp1597
sI45720000
(dp1598
sI28100000
(dp1599
sI1090000
(dp1600
sI28850000
(dp1601
sI56930000
(dp1602
sI12940000
(dp1603
sI17900000
(dp1604
sI30290000
(dp1605
sI8450000
(dp1606
sI3960000
(dp1607
sI14230000
(dp1608
sI10560000
(dp1609
sI32480000
(dp1610
sI6890000
(dp1611
sI60510000
(dp1612
sI44180000
(dp1613
sI24430000
(dp1614
sI56020000
(dp1615
sI47750000
(dp1616
sI20030000
(dp1617
sI16360000
(dp1618
sI6140000
(dp1619
sI53650000
(dp1620
sI59250000
(dp1621
sI9020000
(dp1622
sI28810000
(dp1623
sI59600000
(dp1624
sI5350000
(dp1625
sI55110000
(dp1626
sI11120000
(dp1627
sI4710000
(dp1628
sI6630000
(dp1629
sI42640000
(dp1630
sI20760000
(dp1631
sI41640000
(dp1632
sI38970000
(dp1633
sI35300000
(dp1634
sI53670000
(dp1635
sI11150000
(dp1636
sI5450000
(dp1637
sI58690000
(dp1638
sI54200000
(dp1639
sI7480000
(dp1640
sI4660000
(dp1641
sI5720000
(dp1642
sI3810000
(dp1643
sI49970000
(dp1644
sI140000
(dp1645
sI27330000
(dp1646
sI16950000
(dp1647
sI57780000
(dp1648
sI13280000
(dp1649
sI39760000
(dp1650
sI9300000
(dp1651
sI9610000
(dp1652
sI320000
(dp1653
sI5940000
(dp1654
sI21470000
(dp1655
sI6930000
(dp1656
sI2270000
(dp1657
sI12680000
(dp1658
sI19080000
(dp1659
sI13420000
(dp1660
sI56870000
(dp1661
sI15410000
(dp1662
sI3900000
(dp1663
sI11740000
(dp1664
sI36090000
(dp1665
sI57200000
(dp1666
sI28550000
(dp1667
sI4400000
(dp1668
sI17800000
(dp1669
sI60450000
(dp1670
sI730000
(dp1671
sI55960000
(dp1672
sI17540000
(dp1673
sI9750000
(dp1674
sI2990000
(dp1675
sI13870000
(dp1676
sI10200000
(dp1677
sI32420000
(dp1678
sI6530000
(dp1679
sI59540000
(dp1680
sI9150000
(dp1681
sI55050000
(dp1682
sI23340000
(dp1683
sI34610000
(dp1684
sI2080000
(dp1685
sI19670000
(dp1686
sI16000000
(dp1687
sI47040000
(dp1688
sI53290000
(dp1689
sI29140000
(dp1690
sI28750000
(dp1691
sI25470000
(dp1692
sI5660000
(dp1693
sI1170000
(dp1694
sI1320000
(dp1695
sI30940000
(dp1696
sI18130000
(dp1697
sI60160000
(dp1698
sI14460000
(dp1699
sI43370000
(dp1700
sI57720000
(dp1701
sI10790000
(dp1702
sI9240000
(dp1703
sI4750000
(dp1704
sI7120000
(dp1705
sI35320000
(dp1706
sI3450000
(dp1707
sI20260000
(dp1708
sI17030000
(dp1709
sI61300000
(dp1710
sI16590000
(dp1711
sI56810000
(dp1712
sI12820000
(dp1713
sI52320000
(dp1714
sI53880000
(dp1715
sI39700000
(dp1716
sI50210000
(dp1717
sI46540000
(dp1718
sI31650000
(dp1719
sI22390000
(dp1720
sI60390000
(dp1721
sI18720000
(dp1722
sI13360000
(dp1723
sI7420000
(dp1724
sI15050000
(dp1725
sI37940000
(dp1726
sI52340000
(dp1727
sI5310000
(dp1728
sI33450000
(dp1729
sI7710000
(dp1730
sI4040000
(dp1731
sI27980000
(dp1732
sI59480000
(dp1733
sI54990000
(dp1734
sI370000
(dp1735
sI17180000
(dp1736
sI9690000
(dp1737
sI33990000
(dp1738
sI32540000
(dp1739
sI23560000
(dp1740
sI22120000
(dp1741
sI58570000
(dp1742
sI14580000
(dp1743
sI47130000
(dp1744
sI5600000
(dp1745
sI43460000
(dp1746
sI24310000
(dp1747
sI39790000
(dp1748
sI36120000
(dp1749
sI15640000
(dp1750
sI6020000
(dp1751
sI11970000
(dp1752
sI57660000
(dp1753
sI8300000
(dp1754
sI28690000
(dp1755
sI4690000
(dp1756
sI4630000
(dp1757
sI960000
(dp1758
sI20640000
(dp1759
sI30720000
(dp1760
sI17770000
(dp1761
sI61240000
(dp1762
sI14100000
(dp1763
sI43310000
(dp1764
sI56750000
(dp1765
sI12760000
(dp1766
sI52260000
(dp1767
sI10430000
(dp1768
sI47770000
(dp1769
sI43280000
(dp1770
sI6760000
(dp1771
sI4540000
(dp1772
sI34300000
(dp1773
sI55320000
(dp1774
sI29810000
(dp1775
sI40380000
(dp1776
sI27210000
(dp1777
sI60330000
(dp1778
sI55840000
(dp1779
sI36710000
(dp1780
sI7360000
(dp1781
sI46860000
(dp1782
sI12560000
(dp1783
sI29400000
(dp1784
sI42370000
(dp1785
sI56060000
(dp1786
sI29370000
(dp1787
sI33390000
(dp1788
sI5220000
(dp1789
sI21350000
(dp1790
sI1550000
(dp1791
sI59420000
(dp1792
sI54930000
(dp1793
sI10940000
(dp1794
sI18360000
(dp1795
sI13300000
(dp1796
sI45950000
(dp1797
sI41460000
(dp1798
sI14690000
(dp1799
sI11020000
(dp1800
sI25730000
(dp1801
sI7350000
(dp1802
sI58510000
(dp1803
sI3680000
(dp1804
sI27920000
(dp1805
sI54020000
(dp1806
sI10000
(dp1807
sI45040000
(dp1808
sI16820000
(dp1809
sI9630000
(dp1810
sI33630000
(dp1811
sI29960000
(dp1812
sI22060000
(dp1813
sI13610000
(dp1814
sI53110000
(dp1815
sI5810000
(dp1816
sI48620000
(dp1817
sI2140000
(dp1818
sI24250000
(dp1819
sI39640000
(dp1820
sI39430000
(dp1821
sI59020000
(dp1822
sI15280000
(dp1823
sI5960000
(dp1824
sI61180000
(dp1825
sI11610000
(dp1826
sI52200000
(dp1827
sI47710000
(dp1828
sI7940000
(dp1829
sI28630000
(dp1830
sI43220000
(dp1831
sI38730000
(dp1832
sI4270000
(dp1833
sI34240000
(dp1834
sI600000
(dp1835
sI100000
(dp1836
sI17410000
(dp1837
sI60270000
(dp1838
sI55780000
(dp1839
sI13740000
(dp1840
sI43250000
(dp1841
sI51290000
(dp1842
sI7300000
(dp1843
sI46800000
(dp1844
sI51030000
(dp1845
sI42310000
(dp1846
sI37820000
(dp1847
sI26880000
(dp1848
sI24960000
(dp1849
sI23210000
(dp1850
sI59360000
(dp1851
sI19540000
(dp1852
sI27150000
(dp1853
sI54870000
(dp1854
sI4210000
(dp1855
sI50380000
(dp1856
sI15870000
(dp1857
sI45890000
(dp1858
sI41400000
(dp1859
sI32680000
(dp1860
sI39580000
(dp1861
sI8530000
(dp1862
sI4860000
(dp1863
sI21290000
(dp1864
sI58450000
(dp1865
sI21670000
(dp1866
sI49470000
(dp1867
sI5480000
(dp1868
sI44980000
(dp1869
sI18000000
(dp1870
sI3000000
(dp1871
sI40490000
(dp1872
sI36000000
(dp1873
sI14330000
(dp1874
sI13190000
(dp1875
sI51620000
(dp1876
sI25670000
(dp1877
sI2430000
(dp1878
sI47950000
(dp1879
sI57540000
(dp1880
sI53050000
(dp1881
sI9060000
(dp1882
sI44280000
(dp1883
sI27860000
(dp1884
sI48560000
(dp1885
sI80000
(dp1886
sI20130000
(dp1887
sI16460000
(dp1888
sI50530000
(dp1889
sI52700000
(dp1890
sI21620000
(dp1891
sI12790000
(dp1892
sI61120000
(dp1893
sI56630000
(dp1894
sI9120000
(dp1895
sI32240000
(dp1896
sI52140000
(dp1897
sI47650000
(dp1898
sI3660000
(dp1899
sI25930000
(dp1900
sI43160000
(dp1901
sI1780000
(dp1902
sI24190000
(dp1903
sI18590000
(dp1904
sI14920000
(dp1905
sI36620000
(dp1906
sI55720000
(dp1907
sI51230000
(dp1908
sI11250000
(dp1909
sI46740000
(dp1910
sI42250000
(dp1911
sI7580000
(dp1912
sI28570000
(dp1913
sI37760000
(dp1914
sI33270000
(dp1915
sI44870000
(dp1916
sI41200000
(dp1917
sI20520000
(dp1918
sI59300000
(dp1919
sI17050000
(dp1920
sI54810000
(dp1921
sI5390000
(dp1922
sI50320000
(dp1923
sI13380000
(dp1924
sI32950000
(dp1925
sI1840000
(dp1926
sI41340000
(dp1927
sI9710000
(dp1928
sI32360000
(dp1929
sI6040000
(dp1930
sI24900000
(dp1931
sI2370000
(dp1932
sI58390000
(dp1933
sI59080000
(dp1934
sI19180000
(dp1935
sI16850000
(dp1936
sI49410000
(dp1937
sI44920000
(dp1938
sI15510000
(dp1939
sI40430000
(dp1940
sI35940000
(dp1941
sI52800000
(dp1942
sI29280000
(dp1943
sI31450000
(dp1944
sI8170000
(dp1945
sI4500000
(dp1946
sI21230000
(dp1947
sI52990000
(dp1948
sI45640000
(dp1949
sI48500000
(dp1950
sI830000
(dp1951
sI44010000
(dp1952
sI39520000
(dp1953
sI38120000
(dp1954
sI54140000
(dp1955
sI35030000
(dp1956
sI7610000
(dp1957
sI34450000
(dp1958
sI57140000
(dp1959
sI30780000
(dp1960
sI15370000
(dp1961
sI61060000
(dp1962
sI56570000
(dp1963
sI27110000
(dp1964
sI47590000
(dp1965
sI2960000
(dp1966
sI27800000
(dp1967
sI38610000
(dp1968
sI19770000
(dp1969
sI25140000
(dp1970
sI16100000
(dp1971
sI40230000
(dp1972
sI60150000
(dp1973
sI12430000
(dp1974
sI52870000
(dp1975
sI55660000
(dp1976
sI51170000
(dp1977
sI8760000
(dp1978
sI11700000
(dp1979
sI46680000
(dp1980
sI42190000
(dp1981
sI5090000
(dp1982
sI37700000
(dp1983
sI33210000
(dp1984
sI1420000
(dp1985
sI44610000
(dp1986
sI28720000
(dp1987
sI18230000
(dp1988
sI59240000
(dp1989
sI54750000
(dp1990
sI14560000
(dp1991
sI36560000
(dp1992
sI50260000
(dp1993
sI45770000
(dp1994
sI31370000
(dp1995
sI15580000
(dp1996
sI41280000
(dp1997
sI7220000
(dp1998
sI18270000
(dp1999
sI32300000
(dp2000
sI24030000
(dp2001
sI23320000
(dp2002
sI20360000
(dp2003
sI51180000
(dp2004
sI58330000
(dp2005
sI16690000
(dp2006
sI49350000
(dp2007
sI13020000
(dp2008
sI32890000
(dp2009
sI55090000
(dp2010
sI35880000
(dp2011
sI50310000
(dp2012
sI5680000
(dp2013
sI35080000
(dp2014
sI57420000
(dp2015
sI2010000
(dp2016
sI52930000
(dp2017
sI50950000
(dp2018
sI48440000
(dp2019
sI18820000
(dp2020
sI6550000
(dp2021
sI43950000
(dp2022
sI39460000
(dp2023
sI15150000
(dp2024
sI52440000
(dp2025
sI29220000
(dp2026
sI34310000
(dp2027
sI21500000
(dp2028
sI48770000
(dp2029
sI56510000
(dp2030
sI52020000
(dp2031
sI24620000
(dp2032
sI51890000
(dp2033
sI47530000
(dp2034
sI20950000
(dp2035
sI45810000
(dp2036
sI38550000
(dp2037
sI17280000
(dp2038
sI54080000
(dp2039
sI34090000
(dp2040
sI60090000
(dp2041
sI9940000
(dp2042
sI25550000
(dp2043
sI55600000
(dp2044
sI51110000
(dp2045
sI6270000
(dp2046
sI46620000
(dp2047
sI2600000
(dp2048
sI37980000
(dp2049
sI28660000
(dp2050
sI19410000
(dp2051
sI15740000
(dp2052
sI40170000
(dp2053
sI59180000
(dp2054
sI54690000
(dp2055
sI12070000
(dp2056
sI50200000
(dp2057
sI45710000
(dp2058
sI8400000
(dp2059
sI11640000
(dp2060
sI41220000
(dp2061
sI45690000
(dp2062
sI21540000
(dp2063
sI24070000
(dp2064
sI58270000
(dp2065
sI17870000
(dp2066
sI4250000
(dp2067
sI53780000
(dp2068
sI49290000
(dp2069
sI14200000
(dp2070
sI26260000
(dp2071
sI44800000
(dp2072
sI40310000
(dp2073
sI10530000
(dp2074
sI27340000
(dp2075
sI28450000
(dp2076
sI26840000
(dp2077
sI3190000
(dp2078
sI57360000
(dp2079
sI20000000
(dp2080
sI10160000
(dp2081
sI8880000
(dp2082
sI48380000
(dp2083
sI16330000
(dp2084
sI39400000
(dp2085
sI53620000
(dp2086
sI32830000
(dp2087
sI8990000
(dp2088
sI55260000
(dp2089
sI21440000
(dp2090
sI60940000
(dp2091
sI25800000
(dp2092
sI4300000
(dp2093
sI56450000
(dp2094
sI22130000
(dp2095
sI47470000
(dp2096
sI42980000
(dp2097
sI38940000
(dp2098
sI6490000
(dp2099
sI38490000
(dp2100
sI6470000
(dp2101
sI34000000
(dp2102
sI14790000
(dp2103
sI25020000
(dp2104
sI52080000
(dp2105
sI29160000
(dp2106
sI60030000
(dp2107
sI11550000
(dp2108
sI27930000
(dp2109
sI51050000
(dp2110
sI7060000
(dp2111
sI46560000
(dp2112
sI3780000
(dp2113
sI21110000
(dp2114
sI42070000
(dp2115
sI37580000
(dp2116
sI20590000
(dp2117
sI33090000
(dp2118
sI16920000
(dp2119
sI43780000
(dp2120
sI13250000
(dp2121
sI59120000
(dp2122
sI54630000
(dp2123
sI9580000
(dp2124
sI35730000
(dp2125
sI57480000
(dp2126
sI45650000
(dp2127
sI5910000
(dp2128
sI36670000
(dp2129
sI32180000
(dp2130
sI2240000
(dp2131
sI27680000
(dp2132
sI19050000
(dp2133
sI8690000
(dp2134
sI58210000
(dp2135
sI35860000
(dp2136
sI9390000
(dp2137
sI49230000
(dp2138
sI32190000
(dp2139
sI44740000
(dp2140
sI40250000
(dp2141
sI28520000
(dp2142
sI21820000
(dp2143
sI35760000
(dp2144
sI31270000
(dp2145
sI24850000
(dp2146
sI58960000
(dp2147
sI700000
(dp2148
sI34250000
(dp2149
sI57300000
(dp2150
sI52810000
(dp2151
sI48200000
(dp2152
sI17510000
(dp2153
sI48320000
(dp2154
sI43830000
(dp2155
sI13840000
(dp2156
sI36440000
(dp2157
sI39340000
(dp2158
sI34850000
(dp2159
sI10170000
(dp2160
sI26980000
(dp2161
sI28390000
(dp2162
sI60880000
(dp2163
sI2830000
(dp2164
sI56390000
(dp2165
sI51900000
(dp2166
sI19640000
(dp2167
sI3420000
(dp2168
sI42920000
(dp2169
sI38430000
(dp2170
sI15970000
(dp2171
sI33940000
(dp2172
sI29450000
(dp2173
sI12300000
(dp2174
sI22530000
(dp2175
sI29110000
(dp2176
sI59970000
(dp2177
sI55430000
(dp2178
sI55480000
(dp2179
sI25440000
(dp2180
sI4240000
(dp2181
sI50990000
(dp2182
sI7000000
(dp2183
sI46500000
(dp2184
sI21770000
(dp2185
sI42010000
(dp2186
sI37520000
(dp2187
sI18100000
(dp2188
sI47390000
(dp2189
sI50420000
(dp2190
sI14430000
(dp2191
sI59060000
(dp2192
sI10760000
(dp2193
sI29100000
(dp2194
sI54570000
(dp2195
sI50080000
(dp2196
sI48050000
(dp2197
sI45590000
(dp2198
sI1600000
(dp2199
sI41100000
(dp2200
sI44380000
(dp2201
sI21050000
(dp2202
sI32120000
(dp2203
sI20230000
(dp2204
sI16560000
(dp2205
sI2760000
(dp2206
sI58150000
(dp2207
sI53850000
(dp2208
sI53660000
(dp2209
sI49170000
(dp2210
sI50180000
(dp2211
sI25430000
(dp2212
sI57650000
(dp2213
sI35700000
(dp2214
sI26030000
(dp2215
sI22360000
(dp2216
sI27620000
(dp2217
sI18690000
(dp2218
sI57240000
(dp2219
sI52750000
(dp2220
sI15020000
(dp2221
sI40050000
(dp2222
sI43770000
(dp2223
sI31830000
(dp2224
sI34790000
(dp2225
sI7680000
(dp2226
sI21760000
(dp2227
sI3850000
(dp2228
sI24490000
(dp2229
sI60820000
(dp2230
sI56330000
(dp2231
sI340000
(dp2232
sI3470000
(dp2233
sI51840000
(dp2234
sI47350000
(dp2235
sI37630000
(dp2236
sI42860000
(dp2237
sI54440000
(dp2238
sI36380000
(dp2239
sI33880000
(dp2240
sI9810000
(dp2241
sI47100000
(dp2242
sI28330000
(dp2243
sI55420000
(dp2244
sI43430000
(dp2245
sI46440000
(dp2246
sI5330000
(dp2247
sI41950000
(dp2248
sI19280000
(dp2249
sI51000000
(dp2250
sI37460000
(dp2251
sI32970000
(dp2252
sI15610000
(dp2253
sI11080000
(dp2254
sI11940000
(dp2255
sI42950000
(dp2256
sI59000000
(dp2257
sI8270000
(dp2258
sI54510000
(dp2259
sI50020000
(dp2260
sI25080000
(dp2261
sI4180000
(dp2262
sI21410000
(dp2263
sI36550000
(dp2264
sI32060000
(dp2265
sI17740000
(dp2266
sI47330000
(dp2267
sI14070000
(dp2268
sI58090000
(dp2269
sI53600000
(dp2270
sI10400000
(dp2271
sI39280000
(dp2272
sI49110000
(dp2273
sI6730000
(dp2274
sI40130000
(dp2275
sI35640000
(dp2276
sI18310000
(dp2277
sI44020000
(dp2278
sI20990000
(dp2279
sI31150000
(dp2280
sI40350000
(dp2281
sI57080000
(dp2282
sI16200000
(dp2283
sI33420000
(dp2284
sI52690000
(dp2285
sI53490000
(dp2286
sI43710000
(dp2287
sI29340000
(dp2288
sI35610000
(dp2289
sI34730000
(dp2290
sI8290000
(dp2291
sI5190000
(dp2292
sI57820000
(dp2293
sI21260000
(dp2294
sI22000000
(dp2295
sI7080000
(dp2296
sI60760000
(dp2297
sI56270000
(dp2298
sI18330000
(dp2299
sI51780000
(dp2300
sI47290000
(dp2301
sI3300000
(dp2302
sI14660000
(dp2303
sI29750000
(dp2304
sI9030000
(dp2305
sI38310000
(dp2306
sI10990000
(dp2307
sI33820000
(dp2308
sI7320000
(dp2309
sI21700000
(dp2310
sI59850000
(dp2311
sI3650000
(dp2312
sI20530000
(dp2313
sI55360000
(dp2314
sI50870000
(dp2315
sI20460000
(dp2316
sI3410000
(dp2317
sI46380000
(dp2318
sI41890000
(dp2319
sI16790000
(dp2320
sI37400000
(dp2321
sI32910000
(dp2322
sI33600000
(dp2323
sI36320000
(dp2324
sI29930000
(dp2325
sI58940000
(dp2326
sI5780000
(dp2327
sI38510000
(dp2328
sI49960000
(dp2329
sI60040000
(dp2330
sI45470000
(dp2331
sI22590000
(dp2332
sI40980000
(dp2333
sI36490000
(dp2334
sI18920000
(dp2335
sI9980000
(dp2336
sI32000000
(dp2337
sI15250000
(dp2338
sI11580000
(dp2339
sI22410000
(dp2340
sI58030000
(dp2341
sI53540000
(dp2342
sI490000
(dp2343
sI7910000
(dp2344
sI49050000
(dp2345
sI44560000
(dp2346
sI45200000
(dp2347
sI40070000
(dp2348
sI35580000
(dp2349
sI570000
(dp2350
sI22110000
(dp2351
sI17380000
(dp2352
sI37030000
(dp2353
sI57120000
(dp2354
sI13710000
(dp2355
sI50760000
(dp2356
sI48140000
(dp2357
sI30520000
(dp2358
sI39220000
(dp2359
sI43650000
(dp2360
sI39160000
(dp2361
sI26850000
(dp2362
sI34670000
(dp2363
sI30180000
(dp2364
sI23180000
(dp2365
sI31170000
(dp2366
sI19510000
(dp2367
sI60700000
(dp2368
sI56210000
(dp2369
sI15840000
(dp2370
sI53840000
(dp2371
sI47230000
(dp2372
sI42740000
(dp2373
sI32650000
(dp2374
sI38250000
(dp2375
sI33760000
(dp2376
sI28980000
(dp2377
sI15070000
(dp2378
sI24780000
(dp2379
sI25310000
(dp2380
sI59790000
(dp2381
sI57990000
(dp2382
sI21640000
(dp2383
sI27500000
(dp2384
sI55300000
(dp2385
sI50810000
(dp2386
sI17970000
(dp2387
sI46320000
(dp2388
sI41830000
(dp2389
sI14300000
(dp2390
sI29690000
(dp2391
sI32850000
(dp2392
sI10630000
(dp2393
sI47920000
(dp2394
sI52360000
(dp2395
sI58880000
(dp2396
sI28040000
(dp2397
sI54390000
(dp2398
sI23770000
(dp2399
sI4190000
(dp2400
sI20100000
(dp2401
sI54550000
(dp2402
sI40920000
(dp2403
sI36430000
(dp2404
sI16430000
(dp2405
sI31940000
(dp2406
sI53720000
(dp2407
sI26020000
(dp2408
sI32200000
(dp2409
sI29570000
(dp2410
sI53480000
(dp2411
sI48990000
(dp2412
sI5420000
(dp2413
sI7730000
(dp2414
sI44500000
(dp2415
sI40010000
(dp2416
sI60210000
(dp2417
sI1750000
(dp2418
sI18560000
(dp2419
sI50880000
(dp2420
sI22050000
(dp2421
sI14890000
(dp2422
sI55200000
(dp2423
sI57060000
(dp2424
sI11220000
(dp2425
sI22350000
(dp2426
sI52570000
(dp2427
sI48080000
(dp2428
sI7550000
(dp2429
sI43590000
(dp2430
sI39100000
(dp2431
sI44840000
(dp2432
sI34780000
(dp2433
sI22920000
(dp2434
sI41170000
(dp2435
sI21140000
(dp2436
sI60640000
(dp2437
sI17020000
(dp2438
sI36970000
(dp2439
sI56150000
(dp2440
sI51660000
(dp2441
sI33830000
(dp2442
sI47170000
(dp2443
sI50930000
(dp2444
sI42680000
(dp2445
sI30160000
(dp2446
sI8440000
(dp2447
sI38190000
(dp2448
sI7150000
(dp2449
sI26490000
(dp2450
sI24720000
(dp2451
sI2340000
(dp2452
sI31110000
(dp2453
sI59730000
(dp2454
sI19150000
(dp2455
sI46260000
(dp2456
sI15480000
(dp2457
sI43540000
(dp2458
sI41770000
(dp2459
sI11810000
(dp2460
sI13640000
(dp2461
sI8140000
(dp2462
sI25250000
(dp2463
sI45430000
(dp2464
sI58820000
(dp2465
sI54330000
(dp2466
sI800000
(dp2467
sI6960000
(dp2468
sI41650000
(dp2469
sI45350000
(dp2470
sI38090000
(dp2471
sI40860000
(dp2472
sI36370000
(dp2473
sI34420000
(dp2474
sI39870000
(dp2475
sI18760000
(dp2476
sI27390000
(dp2477
sI22900000
(dp2478
sI30750000
(dp2479
sI57910000
(dp2480
sI27080000
(dp2481
sI21580000
(dp2482
sI58900000
(dp2483
sI53420000
(dp2484
sI48930000
(dp2485
sI23410000
(dp2486
sI44440000
(dp2487
sI39950000
(dp2488
sI19740000
(dp2489
sI44250000
(dp2490
sI20870000
(dp2491
sI35460000
(dp2492
sI30970000
(dp2493
sI16070000
(dp2494
sI12400000
(dp2495
sI36200000
(dp2496
sI57000000
(dp2497
sI32370000
(dp2498
sI52510000
(dp2499
sI29210000
(dp2500
sI48020000
(dp2501
sI43530000
(dp2502
sI5060000
(dp2503
sI17910000
(dp2504
sI39040000
(dp2505
sI34550000
(dp2506
sI1390000
(dp2507
sI60380000
(dp2508
sI18200000
(dp2509
sI40580000
(dp2510
sI90000
(dp2511
sI21080000
(dp2512
sI60580000
(dp2513
sI35010000
(dp2514
sI56090000
(dp2515
sI51600000
(dp2516
sI31340000
(dp2517
sI22290000
(dp2518
sI3120000
(dp2519
sI42620000
(dp2520
sI27670000
(dp2521
sI33640000
(dp2522
sI3520000
(dp2523
sI4000000
(dp2524
sI24660000
(dp2525
sI20330000
(dp2526
sI23090000
(dp2527
sI55180000
(dp2528
sI16660000
(dp2529
sI36910000
(dp2530
sI50690000
(dp2531
sI46200000
(dp2532
sI12990000
(dp2533
sI41710000
(dp2534
sI9320000
(dp2535
sI28860000
(dp2536
sI32730000
(dp2537
sI5650000
(dp2538
sI22460000
(dp2539
sI330000
(dp2540
sI54270000
(dp2541
sI10280000
(dp2542
sI49780000
(dp2543
sI18790000
(dp2544
sI2310000
(dp2545
sI45290000
(dp2546
sI15120000
(dp2547
sI33240000
(dp2548
sI36310000
(dp2549
sI31820000
(dp2550
sI52410000
(dp2551
sI28260000
(dp2552
sI35430000
(dp2553
sI57850000
(dp2554
sI24590000
(dp2555
sI53360000
(dp2556
sI48870000
(dp2557
sI20920000
(dp2558
sI47860000
(dp2559
sI39890000
(dp2560
sI41820000
(dp2561
sI17250000
(dp2562
sI30910000
(dp2563
sI13580000
(dp2564
sI39810000
(dp2565
sI9910000
(dp2566
sI56940000
(dp2567
sI53320000
(dp2568
sI52450000
(dp2569
sI26720000
(dp2570
sI11280000
(dp2571
sI43470000
(dp2572
sI23050000
(dp2573
sI34490000
(dp2574
sI19380000
(dp2575
sI44190000
(dp2576
sI15710000
(dp2577
sI60520000
(dp2578
sI56030000
(dp2579
sI53000000
(dp2580
sI25900000
(dp2581
sI47050000
(dp2582
sI3060000
(dp2583
sI49330000
(dp2584
sI42560000
(dp2585
sI38070000
(dp2586
sI25180000
(dp2587
sI28090000
(dp2588
sI5270000
(dp2589
sI33580000
(dp2590
sI1030000
(dp2591
sI24600000
(dp2592
sI17840000
(dp2593
sI30280000
(dp2594
sI59610000
(dp2595
sI11130000
(dp2596
sI14170000
(dp2597
sI50630000
(dp2598
sI51460000
(dp2599
sI22230000
(dp2600
sI55540000
(dp2601
sI32670000
(dp2602
sI47790000
(dp2603
sI56050000
(dp2604
sI44780000
(dp2605
sI3160000
(dp2606
sI3940000
(dp2607
sI58700000
(dp2608
sI19970000
(dp2609
sI54210000
(dp2610
sI16300000
(dp2611
sI26610000
(dp2612
sI45230000
(dp2613
sI40740000
(dp2614
sI12630000
(dp2615
sI36250000
(dp2616
sI45520000
(dp2617
sI31760000
(dp2618
sI49920000
(dp2619
sI8320000
(dp2620
sI34760000
(dp2621
sI5290000
(dp2622
sI57790000
(dp2623
sI53300000
(dp2624
sI42580000
(dp2625
sI10510000
(dp2626
sI48810000
(dp2627
sI44320000
(dp2628
sI38910000
(dp2629
sI39830000
(dp2630
sI14760000
(dp2631
sI33180000
(dp2632
sI30850000
(dp2633
sI11090000
(dp2634
sI27900000
(dp2635
sI25130000
(dp2636
sI56880000
(dp2637
sI52390000
(dp2638
sI24230000
(dp2639
sI47900000
(dp2640
sI43410000
(dp2641
sI20560000
(dp2642
sI47800000
(dp2643
sI34430000
(dp2644
sI16890000
(dp2645
sI41990000
(dp2646
sI25450000
(dp2647
sI33700000
(dp2648
sI49990000
(dp2649
sI60460000
(dp2650
sI55970000
(dp2651
sI9550000
(dp2652
sI51480000
(dp2653
sI46990000
(dp2654
sI5880000
(dp2655
sI21460000
(dp2656
sI42500000
(dp2657
sI38010000
(dp2658
sI2210000
(dp2659
sI29030000
(dp2660
sI39500000
(dp2661
sI44130000
(dp2662
sI59550000
(dp2663
sI35830000
(dp2664
sI4700000
(dp2665
sI55060000
(dp2666
sI37720000
(dp2667
sI50570000
(dp2668
sI32160000
(dp2669
sI25840000
(dp2670
sI46080000
(dp2671
sI41590000
(dp2672
sI8010000
(dp2673
sI37100000
(dp2674
sI32610000
(dp2675
sI45300000
(dp2676
sI28030000
(dp2677
sI28120000
(dp2678
sI21150000
(dp2679
sI58640000
(dp2680
sI17480000
(dp2681
sI30220000
(dp2682
sI44210000
(dp2683
sI49660000
(dp2684
sI60720000
(dp2685
sI13810000
(dp2686
sI40680000
(dp2687
sI36190000
(dp2688
sI51100000
(dp2689
sI22170000
(dp2690
sI31700000
(dp2691
sI26950000
(dp2692
sI22720000
(dp2693
sI23280000
(dp2694
sI3880000
(dp2695
sI57730000
(dp2696
sI53240000
(dp2697
sI19610000
(dp2698
sI48750000
(dp2699
sI44260000
(dp2700
sI15940000
(dp2701
sI36790000
(dp2702
sI39770000
(dp2703
sI32750000
(dp2704
sI30790000
(dp2705
sI26300000
(dp2706
sI29080000
(dp2707
sI38980000
(dp2708
sI56820000
(dp2709
sI25410000
(dp2710
sI52330000
(dp2711
sI47840000
(dp2712
sI21740000
(dp2713
sI51410000
(dp2714
sI43350000
(dp2715
sI38860000
(dp2716
sI18070000
(dp2717
sI34370000
(dp2718
sI29880000
(dp2719
sI14400000
(dp2720
sI22880000
(dp2721
sI2650000
(dp2722
sI20900000
(dp2723
sI10730000
(dp2724
sI60400000
(dp2725
sI55910000
(dp2726
sI11920000
(dp2727
sI27540000
(dp2728
sI51420000
(dp2729
sI46930000
(dp2730
sI2940000
(dp2731
sI3390000
(dp2732
sI37950000
(dp2733
sI33460000
(dp2734
sI20200000
(dp2735
sI37500000
(dp2736
sI28970000
(dp2737
sI24480000
(dp2738
sI16530000
(dp2739
sI25650000
(dp2740
sI59490000
(dp2741
sI53820000
(dp2742
sI49930000
(dp2743
sI11010000
(dp2744
sI50510000
(dp2745
sI6520000
(dp2746
sI50150000
(dp2747
sI2030000
(dp2748
sI41350000
(dp2749
sI41530000
(dp2750
sI26000000
(dp2751
sI52120000
(dp2752
sI37040000
(dp2753
sI32550000
(dp2754
sI22330000
(dp2755
sI23570000
(dp2756
sI18660000
(dp2757
sI44070000
(dp2758
sI58580000
(dp2759
sI10100000
(dp2760
sI14990000
(dp2761
sI49600000
(dp2762
sI4870000
(dp2763
sI45110000
(dp2764
sI1120000
(dp2765
sI31800000
(dp2766
sI25780000
(dp2767
sI40620000
(dp2768
sI36130000
(dp2769
sI7650000
(dp2770
sI31640000
(dp2771
sI24460000
(dp2772
sI7490000
(dp2773
sI20790000
(dp2774
sI57670000
(dp2775
sI53180000
(dp2776
sI17120000
(dp2777
sI40400000
(dp2778
sI210000
(dp2779
sI39710000
(dp2780
sI13450000
(dp2781
sI35220000
(dp2782
sI30730000
(dp2783
sI50740000
(dp2784
sI1630000
(dp2785
sI26240000
(dp2786
sI21750000
(dp2787
sI47070000
(dp2788
sI61250000
(dp2789
sI55880000
(dp2790
sI12770000
(dp2791
sI2440000
(dp2792
sI14060000
(dp2793
sI52270000
(dp2794
sI47780000
(dp2795
sI19250000
(dp2796
sI43290000
(dp2797
sI38800000
(dp2798
sI36060000
(dp2799
sI36730000
(dp2800
sI7090000
(dp2801
sI11910000
(dp2802
sI60340000
(dp2803
sI8240000
(dp2804
sI38920000
(dp2805
sI55850000
(dp2806
sI11860000
(dp2807
sI51360000
(dp2808
sI25050000
(dp2809
sI46870000
(dp2810
sI2880000
(dp2811
sI42380000
(dp2812
sI900000
(dp2813
sI51350000
(dp2814
sI37890000
(dp2815
sI33400000
(dp2816
sI17710000
(dp2817
sI28910000
(dp2818
sI24420000
(dp2819
sI14040000
(dp2820
sI22820000
(dp2821
sI59430000
(dp2822
sI10370000
(dp2823
sI10950000
(dp2824
sI7430000
(dp2825
sI50450000
(dp2826
sI27180000
(dp2827
sI35250000
(dp2828
sI41470000
(dp2829
sI43990000
(dp2830
sI32490000
(dp2831
sI40320000
(dp2832
sI37440000
(dp2833
sI23510000
(dp2834
sI19020000
(dp2835
sI36650000
(dp2836
sI14530000
(dp2837
sI54030000
(dp2838
sI10040000
(dp2839
sI53460000
(dp2840
sI39630000
(dp2841
sI5550000
(dp2842
sI58840000
(dp2843
sI45050000
(dp2844
sI1060000
(dp2845
sI29310000
(dp2846
sI40560000
(dp2847
sI36070000
(dp2848
sI5160000
(dp2849
sI52060000
(dp2850
sI56710000
(dp2851
sI27090000
(dp2852
sI37320000
(dp2853
sI1490000
(dp2854
sI18110000
(dp2855
sI10050000
(dp2856
sI57610000
(dp2857
sI13620000
(dp2858
sI18300000
(dp2859
sI23530000
(dp2860
sI53120000
(dp2861
sI48630000
(dp2862
sI14630000
(dp2863
sI150000
(dp2864
sI39650000
(dp2865
sI10960000
(dp2866
sI25720000
(dp2867
sI35160000
(dp2868
sI30670000
(dp2869
sI7290000
(dp2870
sI26180000
(dp2871
sI21690000
(dp2872
sI24100000
(dp2873
sI27910000
(dp2874
sI17200000
(dp2875
sI12710000
(dp2876
sI52210000
(dp2877
sI8220000
(dp2878
sI3730000
(dp2879
sI43230000
(dp2880
sI37240000
(dp2881
sI9620000
(dp2882
sI38740000
(dp2883
sI33570000
(dp2884
sI29760000
(dp2885
sI44550000
(dp2886
sI25270000
(dp2887
sI29900000
(dp2888
sI1570000
(dp2889
sI20780000
(dp2890
sI16290000
(dp2891
sI26230000
(dp2892
sI55790000
(dp2893
sI11800000
(dp2894
sI51300000
(dp2895
sI22560000
(dp2896
sI44720000
(dp2897
sI46810000
(dp2898
sI2820000
(dp2899
sI42320000
(dp2900
sI18890000
(dp2901
sI37830000
(dp2902
sI33340000
(dp2903
sI15220000
(dp2904
sI5950000
(dp2905
sI24360000
(dp2906
sI19870000
(dp2907
sI32030000
(dp2908
sI59370000
(dp2909
sI7260000
(dp2910
sI10890000
(dp2911
sI28360000
(dp2912
sI28620000
(dp2913
sI50390000
(dp2914
sI6400000
(dp2915
sI45900000
(dp2916
sI24690000
(dp2917
sI41410000
(dp2918
sI2250000
(dp2919
sI540000
(dp2920
sI41050000
(dp2921
sI32430000
(dp2922
sI27940000
(dp2923
sI17350000
(dp2924
sI23450000
(dp2925
sI57530000
(dp2926
sI18960000
(dp2927
sI13680000
(dp2928
sI22760000
(dp2929
sI46770000
(dp2930
sI30490000
(dp2931
sI44990000
(dp2932
sI1000000
(dp2933
sI40500000
(dp2934
sI26820000
(dp2935
sI4470000
(dp2936
sI36010000
(dp2937
sI31520000
(dp2938
sI2670000
(dp2939
sI27030000
(dp2940
sI22540000
(dp2941
sI39960000
(dp2942
sI37380000
(dp2943
sI18050000
(dp2944
sI57550000
(dp2945
sI13560000
(dp2946
sI15810000
(dp2947
sI9070000
(dp2948
sI53100000
(dp2949
sI29330000
(dp2950
sI44080000
(dp2951
sI39590000
(dp2952
sI9480000
(dp2953
sI59010000
(dp2954
sI8470000
(dp2955
sI35100000
(dp2956
sI30610000
(dp2957
sI25280000
(dp2958
sI11040000
(dp2959
sI21630000
(dp2960
sI61130000
(dp2961
sI17140000
(dp2962
sI1130000
(dp2963
sI12650000
(dp2964
sI54000000
(dp2965
sI52150000
(dp2966
sI8160000
(dp2967
sI17940000
(dp2968
sI33710000
(dp2969
sI47660000
(dp2970
sI43170000
(dp2971
sI14270000
(dp2972
sI38680000
(dp2973
sI34190000
(dp2974
sI51560000
(dp2975
sI46140000
(dp2976
sI29700000
(dp2977
sI25210000
(dp2978
sI47890000
(dp2979
sI20720000
(dp2980
sI16230000
(dp2981
sI23740000
(dp2982
sI17610000
(dp2983
sI51240000
(dp2984
sI46750000
(dp2985
sI20070000
(dp2986
sI200000
(dp2987
sI42260000
(dp2988
sI37770000
(dp2989
sI16400000
(dp2990
sI40280000
(dp2991
sI33280000
(dp2992
sI28790000
(dp2993
sI12730000
(dp2994
sI24300000
(dp2995
sI19810000
(dp2996
sI28210000
(dp2997
sI29540000
(dp2998
sI21990000
(dp2999
sI59310000
(dp3000
sI15320000
(dp3001
sI10830000
(dp3002
sI25870000
(dp3003
sI50330000
(dp3004
sI6340000
(dp3005
sI1850000
(dp3006
sI1720000
(dp3007
sI44660000
(dp3008
sI36860000
(dp3009
sI56220000
(dp3010
sI18530000
(dp3011
sI27880000
(dp3012
sI45460000
(dp3013
sI23390000
(dp3014
sI14860000
(dp3015
sI36610000
(dp3016
sI18900000
(dp3017
sI14410000
(dp3018
sI11190000
(dp3019
sI53910000
(dp3020
sI9920000
(dp3021
sI5430000
(dp3022
sI48480000
(dp3023
sI28560000
(dp3024
sI44930000
(dp3025
sI940000
(dp3026
sI40440000
(dp3027
sI44810000
(dp3028
sI35950000
(dp3029
sI31460000
(dp3030
sI41140000
(dp3031
sI40990000
(dp3032
sI26970000
(dp3033
sI18930000
(dp3034
sI22480000
(dp3035
sI16990000
(dp3036
sI17990000
(dp3037
sI57490000
(dp3038
sI13500000
(dp3039
sI54280000
(dp3040
sI32940000
(dp3041
sI48510000
(dp3042
sI4520000
(dp3043
sI30000
(dp3044
sI50610000
(dp3045
sI46940000
(dp3046
sI39530000
(dp3047
sI35040000
(dp3048
sI26460000
(dp3049
sI35130000
(dp3050
sI26060000
(dp3051
sI43270000
(dp3052
sI21570000
(dp3053
sI8910000
(dp3054
sI61070000
(dp3055
sI17080000
(dp3056
sI58440000
(dp3057
sI19120000
(dp3058
sI47560000
(dp3059
sI12590000
(dp3060
sI8100000
(dp3061
sI15450000
(dp3062
sI3610000
(dp3063
sI9650000
(dp3064
sI43110000
(dp3065
sI32260000
(dp3066
sI29270000
(dp3067
sI36920000
(dp3068
sI34130000
(dp3069
sI28590000
(dp3070
sI25150000
(dp3071
sI20660000
(dp3072
sI4440000
(dp3073
sI10980000
(dp3074
sI16170000
(dp3075
sI55670000
(dp3076
sI11680000
(dp3077
sI41730000
(dp3078
sI7190000
(dp3079
sI46690000
(dp3080
sI2700000
(dp3081
sI38060000
(dp3082
sI43890000
(dp3083
sI42200000
(dp3084
sI37710000
(dp3085
sI13910000
(dp3086
sI33220000
(dp3087
sI28730000
(dp3088
sI10240000
(dp3089
sI25600000
(dp3090
sI6570000
(dp3091
sI10770000
(dp3092
sI2900000
(dp3093
sI27790000
(dp3094
sI1790000
(dp3095
sI40190000
(dp3096
sI60660000
(dp3097
sI16040000
(dp3098
sI29980000
(dp3099
sI12370000
(dp3100
sI58340000
(dp3101
sI8700000
(dp3102
sI21930000
(dp3103
sI9860000
(dp3104
sI5370000
(dp3105
sI5030000
(dp3106
sI1360000
(dp3107
sI34360000
(dp3108
sI18170000
(dp3109
sI3080000
(dp3110
sI34980000
(dp3111
sI26310000
(dp3112
sI57430000
(dp3113
sI13440000
(dp3114
sI8950000
(dp3115
sI31310000
(dp3116
sI4460000
(dp3117
sI7160000
(dp3118
sI28500000
(dp3119
sI3490000
(dp3120
sI20300000
(dp3121
sI30690000
(dp3122
sI61010000
(dp3123
sI16630000
(dp3124
sI8040000
(dp3125
sI3550000
(dp3126
sI12960000
(dp3127
sI32880000
(dp3128
sI9290000
(dp3129
sI47110000
(dp3130
sI58520000
(dp3131
sI46580000
(dp3132
sI45310000
(dp3133
sI19840000
(dp3134
sI1950000
(dp3135
sI60100000
(dp3136
sI55610000
(dp3137
sI11620000
(dp3138
sI39240000
(dp3139
sI37260000
(dp3140
sI7130000
(dp3141
sI58610000
(dp3142
sI2640000
(dp3143
sI35570000
(dp3144
sI52380000
(dp3145
sI8730000
(dp3146
sI4070000
(dp3147
sI28230000
(dp3148
sI59190000
(dp3149
sI24560000
(dp3150
sI10920000
(dp3151
sI10710000
(dp3152
sI410000
(dp3153
sI17220000
(dp3154
sI23350000
(dp3155
sI13550000
(dp3156
sI9880000
(dp3157
sI25540000
(dp3158
sI58280000
(dp3159
sI6210000
(dp3160
sI44640000
(dp3161
sI2540000
(dp3162
sI27730000
(dp3163
sI19350000
(dp3164
sI15680000
(dp3165
sI29920000
(dp3166
sI12010000
(dp3167
sI57370000
(dp3168
sI6290000
(dp3169
sI49300000
(dp3170
sI21870000
(dp3171
sI4670000
(dp3172
sI21480000
(dp3173
sI24060000
(dp3174
sI17810000
(dp3175
sI7030000
(dp3176
sI60950000
(dp3177
sI56460000
(dp3178
sI14140000
(dp3179
sI26250000
(dp3180
sI10470000
(dp3181
sI6800000
(dp3182
sI7960000
(dp3183
sI34010000
(dp3184
sI3130000
(dp3185
sI19940000
(dp3186
sI30630000
(dp3187
sI55550000
(dp3188
sI16270000
(dp3189
sI2580000
(dp3190
sI12600000
(dp3191
sI22580000
(dp3192
sI8930000
(dp3193
sI46220000
(dp3194
sI4290000
(dp3195
sI19630000
(dp3196
sI47280000
(dp3197
sI59130000
(dp3198
sI1590000
(dp3199
sI54640000
(dp3200
sI6160000
(dp3201
sI18400000
(dp3202
sI26960000
(dp3203
sI9250000
(dp3204
sI14730000
(dp3205
sI11060000
(dp3206
sI29150000
(dp3207
sI7390000
(dp3208
sI58220000
(dp3209
sI44680000
(dp3210
sI51820000
(dp3211
sI760000
(dp3212
sI50000
(dp3213
sI16860000
(dp3214
sI13050000
(dp3215
sI54150000
(dp3216
sI57310000
(dp3217
sI9520000
(dp3218
sI35720000
(dp3219
sI4340000
(dp3220
sI5850000
(dp3221
sI22660000
(dp3222
sI37910000
(dp3223
sI39470000
(dp3224
sI35800000
(dp3225
sI29860000
(dp3226
sI60890000
(dp3227
sI61000000
(dp3228
sI56400000
(dp3229
sI11650000
(dp3230
sI3430000
(dp3231
sI7980000
(dp3232
sI11570000
(dp3233
sI4310000
(dp3234
sI12210000
(dp3235
sI21120000
(dp3236
sI24000000
(dp3237
sI59980000
(dp3238
sI17450000
(dp3239
sI55490000
(dp3240
sI11500000
(dp3241
sI13780000
(dp3242
sI26190000
(dp3243
sI56730000
(dp3244
sI2520000
(dp3245
sI10110000
(dp3246
sI26920000
(dp3247
sI38620000
(dp3248
sI51720000
(dp3249
sI2770000
(dp3250
sI59070000
(dp3251
sI54580000
(dp3252
sI19580000
(dp3253
sI30570000
(dp3254
sI45600000
(dp3255
sI15910000
(dp3256
sI41110000
(dp3257
sI2930000
(dp3258
sI32720000
(dp3259
sI32760000
(dp3260
sI49530000
(dp3261
sI25380000
(dp3262
sI4230000
(dp3263
sI58160000
(dp3264
sI9680000
(dp3265
sI1230000
(dp3266
sI3670000
(dp3267
sI18040000
(dp3268
sI37140000
(dp3269
sI14370000
(dp3270
sI42440000
(dp3271
sI10700000
(dp3272
sI29090000
(dp3273
sI57250000
(dp3274
sI13260000
(dp3275
sI27510000
(dp3276
sI4410000
(dp3277
sI48270000
(dp3278
sI4280000
(dp3279
sI53940000
(dp3280
sI3360000
(dp3281
sI41520000
(dp3282
sI20170000
(dp3283
sI16500000
(dp3284
sI33470000
(dp3285
sI60830000
(dp3286
sI53790000
(dp3287
sI56340000
(dp3288
sI7860000
(dp3289
sI9160000
(dp3290
sI25420000
(dp3291
sI42870000
(dp3292
sI5490000
(dp3293
sI38380000
(dp3294
sI49670000
(dp3295
sI22300000
(dp3296
sI37850000
(dp3297
sI5890000
(dp3298
sI18630000
(dp3299
sI59920000
(dp3300
sI14960000
(dp3301
sI29800000
(dp3302
sI50940000
(dp3303
sI11290000
(dp3304
sI2460000
(dp3305
sI7620000
(dp3306
sI11510000
(dp3307
sI3950000
(dp3308
sI56160000
(dp3309
sI12380000
(dp3310
sI280000
(dp3311
sI34180000
(dp3312
sI45400000
(dp3313
sI17090000
(dp3314
sI45540000
(dp3315
sI54380000
(dp3316
sI26130000
(dp3317
sI7370000
(dp3318
sI50710000
(dp3319
sI6080000
(dp3320
sI7840000
(dp3321
sI58100000
(dp3322
sI22890000
(dp3323
sI53610000
(dp3324
sI49120000
(dp3325
sI8110000
(dp3326
sI19220000
(dp3327
sI30510000
(dp3328
sI44630000
(dp3329
sI640000
(dp3330
sI15550000
(dp3331
sI11880000
(dp3332
sI1980000
(dp3333
sI8210000
(dp3334
sI57190000
(dp3335
sI13200000
(dp3336
sI45500000
(dp3337
sI4170000
(dp3338
sI48210000
(dp3339
sI870000
(dp3340
sI17680000
(dp3341
sI6360000
(dp3342
sI57620000
(dp3343
sI14010000
(dp3344
sI60770000
(dp3345
sI10340000
(dp3346
sI8550000
(dp3347
sI56280000
(dp3348
sI51790000
(dp3349
sI6670000
(dp3350
sI47300000
(dp3351
sI43960000
(dp3352
sI20980000
(dp3353
sI40290000
(dp3354
sI16140000
(dp3355
sI23170000
(dp3356
sI59860000
(dp3357
sI55370000
(dp3358
sI12470000
(dp3359
sI46390000
(dp3360
sI8800000
(dp3361
sI4880000
(dp3362
sI25610000
(dp3363
sI32920000
(dp3364
sI60600000
(dp3365
sI1460000
(dp3366
sI27550000
(dp3367
sI38750000
(dp3368
sI58950000
(dp3369
sI54460000
(dp3370
sI14600000
(dp3371
sI29740000
(dp3372
sI45480000
(dp3373
sI31410000
(dp3374
sI36500000
(dp3375
sI48220000
(dp3376
sI1210000
(dp3377
sI3590000
(dp3378
sI58040000
(dp3379
sI20400000
(dp3380
sI23880000
(dp3381
sI53550000
(dp3382
sI9560000
(dp3383
sI37210000
(dp3384
sI44570000
(dp3385
sI33540000
(dp3386
sI5590000
(dp3387
sI29870000
(dp3388
sI26200000
(dp3389
sI48740000
(dp3390
sI57130000
(dp3391
sI52640000
(dp3392
sI2050000
(dp3393
sI48150000
(dp3394
sI4160000
(dp3395
sI43660000
(dp3396
sI18860000
(dp3397
sI40690000
(dp3398
sI15190000
(dp3399
sI11520000
(dp3400
sI22400000
(dp3401
sI60710000
(dp3402
sI7850000
(dp3403
sI12230000
(dp3404
sI51730000
(dp3405
sI7740000
(dp3406
sI45140000
(dp3407
sI34830000
(dp3408
sI42750000
(dp3409
sI38260000
(dp3410
sI510000
(dp3411
sI33770000
(dp3412
sI17320000
(dp3413
sI26780000
(dp3414
sI4010000
(dp3415
sI13650000
(dp3416
sI59800000
(dp3417
sI55310000
(dp3418
sI11320000
(dp3419
sI30460000
(dp3420
sI8490000
(dp3421
sI50820000
(dp3422
sI46330000
(dp3423
sI26790000
(dp3424
sI41840000
(dp3425
sI23120000
(dp3426
sI31160000
(dp3427
sI19450000
(dp3428
sI58890000
(dp3429
sI15780000
(dp3430
sI23110000
(dp3431
sI54400000
(dp3432
sI49910000
(dp3433
sI5920000
(dp3434
sI12110000
(dp3435
sI45420000
(dp3436
sI40930000
(dp3437
sI49400000
(dp3438
sI4820000
(dp3439
sI31950000
(dp3440
sI55020000
(dp3441
sI4770000
(dp3442
sI1100000
(dp3443
sI7010000
(dp3444
sI57980000
(dp3445
sI33500000
(dp3446
sI49000000
(dp3447
sI6230000
(dp3448
sI44510000
(dp3449
sI520000
(dp3450
sI29680000
(dp3451
sI55760000
(dp3452
sI35530000
(dp3453
sI51530000
(dp3454
sI45000000
(dp3455
sI27380000
(dp3456
sI52350000
(dp3457
sI23710000
(dp3458
sI57070000
(dp3459
sI13080000
(dp3460
sI52580000
(dp3461
sI40520000
(dp3462
sI34060000
(dp3463
sI48090000
(dp3464
sI4100000
(dp3465
sI43600000
(dp3466
sI16370000
(dp3467
sI34620000
(dp3468
sI12700000
(dp3469
sI5530000
(dp3470
sI55240000
(dp3471
sI29510000
(dp3472
sI60650000
(dp3473
sI12170000
(dp3474
sI5360000
(dp3475
sI48680000
(dp3476
sI51670000
(dp3477
sI47180000
(dp3478
sI1690000
(dp3479
sI42690000
(dp3480
sI38200000
(dp3481
sI18500000
(dp3482
sI30390000
(dp3483
sI14830000
(dp3484
sI11160000
(dp3485
sI22340000
(dp3486
sI55250000
(dp3487
sI47220000
(dp3488
sI48450000
(dp3489
sI46270000
(dp3490
sI41780000
(dp3491
sI3820000
(dp3492
sI34770000
(dp3493
sI37290000
(dp3494
sI9190000
(dp3495
sI20630000
(dp3496
sI28310000
(dp3497
sI16960000
(dp3498
sI36960000
(dp3499
sI58830000
(dp3500
sI13290000
(dp3501
sI54340000
(dp3502
sI49850000
(dp3503
sI30100000
(dp3504
sI8430000
(dp3505
sI45360000
(dp3506
sI40870000
(dp3507
sI26440000
(dp3508
sI46910000
(dp3509
sI2280000
(dp3510
sI31100000
(dp3511
sI59840000
(dp3512
sI19090000
(dp3513
sI57920000
(dp3514
sI53430000
(dp3515
sI15420000
(dp3516
sI33290000
(dp3517
sI48940000
(dp3518
sI44450000
(dp3519
sI11750000
(dp3520
sI8080000
(dp3521
sI4760000
(dp3522
sI30980000
(dp3523
sI24890000
(dp3524
sI41700000
(dp3525
sI27430000
(dp3526
sI52520000
(dp3527
sI48030000
(dp3528
sI38030000
(dp3529
sI33670000
(dp3530
sI39050000
(dp3531
sI13880000
(dp3532
sI29620000
(dp3533
sI34560000
(dp3534
sI10210000
(dp3535
sI27020000
(dp3536
sI42050000
(dp3537
sI60590000
(dp3538
sI56100000
(dp3539
sI2870000
(dp3540
sI51610000
(dp3541
sI47120000
(dp3542
sI19680000
(dp3543
sI13520000
(dp3544
sI16010000
(dp3545
sI12340000
(dp3546
sI25950000
(dp3547
sI59680000
(dp3548
sI8670000
(dp3549
sI55190000
(dp3550
sI50700000
(dp3551
sI5000000
(dp3552
sI28140000
(dp3553
sI46210000
(dp3554
sI2220000
(dp3555
sI41720000
(dp3556
sI1330000
(dp3557
sI37230000
(dp3558
sI32740000
(dp3559
sI18140000
(dp3560
sI20090000
(dp3561
sI23760000
(dp3562
sI14470000
(dp3563
sI58770000
(dp3564
sI31280000
(dp3565
sI12040000
(dp3566
sI49790000
(dp3567
sI27610000
(dp3568
sI40810000
(dp3569
sI23940000
(dp3570
sI24470000
(dp3571
sI20270000
(dp3572
sI16600000
(dp3573
sI26660000
(dp3574
sI57860000
(dp3575
sI53370000
(dp3576
sI12930000
(dp3577
sI48880000
(dp3578
sI44390000
(dp3579
sI9260000
(dp3580
sI39090000
(dp3581
sI30920000
(dp3582
sI26430000
(dp3583
sI21940000
(dp3584
sI1920000
(dp3585
sI31040000
(dp3586
sI56950000
(dp3587
sI18730000
(dp3588
sI52460000
(dp3589
sI47970000
(dp3590
sI3980000
(dp3591
sI15060000
(dp3592
sI12750000
(dp3593
sI43480000
(dp3594
sI38990000
(dp3595
sI31870000
(dp3596
sI34500000
(dp3597
sI28200000
(dp3598
sI35420000
(dp3599
sI25520000
(dp3600
sI24530000
(dp3601
sI16540000
(dp3602
sI56040000
(dp3603
sI51550000
(dp3604
sI20860000
(dp3605
sI27370000
(dp3606
sI47060000
(dp3607
sI42570000
(dp3608
sI17190000
(dp3609
sI33590000
(dp3610
sI54480000
(dp3611
sI9080000
(dp3612
sI59720000
(dp3613
sI9850000
(dp3614
sI59620000
(dp3615
sI6180000
(dp3616
sI31750000
(dp3617
sI55130000
(dp3618
sI50640000
(dp3619
sI2510000
(dp3620
sI46150000
(dp3621
sI2160000
(dp3622
sI41660000
(dp3623
sI19320000
(dp3624
sI3220000
(dp3625
sI15650000
(dp3626
sI56840000
(dp3627
sI23700000
(dp3628
sI52940000
(dp3629
sI25890000
(dp3630
sI58710000
(dp3631
sI56310000
(dp3632
sI49270000
(dp3633
sI49730000
(dp3634
sI45240000
(dp3635
sI25120000
(dp3636
sI38320000
(dp3637
sI40750000
(dp3638
sI36260000
(dp3639
sI21450000
(dp3640
sI31770000
(dp3641
sI27280000
(dp3642
sI17780000
(dp3643
sI9790000
(dp3644
sI57460000
(dp3645
sI14110000
(dp3646
sI53310000
(dp3647
sI48820000
(dp3648
sI51400000
(dp3649
sI11980000
(dp3650
sI44330000
(dp3651
sI39840000
(dp3652
sI27250000
(dp3653
sI35350000
(dp3654
sI30860000
(dp3655
sI23580000
(dp3656
sI34650000
(dp3657
sI21880000
(dp3658
sI19910000
(dp3659
sI56890000
(dp3660
sI12900000
(dp3661
sI16240000
(dp3662
sI26600000
(dp3663
sI52400000
(dp3664
sI47910000
(dp3665
sI12570000
(dp3666
sI43420000
(dp3667
sI38930000
(dp3668
sI8900000
(dp3669
sI8310000
(dp3670
sI29950000
(dp3671
sI46190000
(dp3672
sI60470000
(dp3673
sI42520000
(dp3674
sI20740000
(dp3675
sI55980000
(dp3676
sI51490000
(dp3677
sI18370000
(dp3678
sI47000000
(dp3679
sI49040000
(dp3680
sI42510000
(dp3681
sI14700000
(dp3682
sI12690000
(dp3683
sI38020000
(dp3684
sI54790000
(dp3685
sI33530000
(dp3686
sI31510000
(dp3687
sI27840000
(dp3688
sI4640000
(dp3689
sI59560000
(dp3690
sI55070000
(dp3691
sI24170000
(dp3692
sI50580000
(dp3693
sI46090000
(dp3694
sI20000
(dp3695
sI27310000
(dp3696
sI41600000
(dp3697
sI37110000
(dp3698
sI16830000
(dp3699
sI32620000
(dp3700
sI28130000
(dp3701
sI13160000
(dp3702
sI19260000
(dp3703
sI23640000
(dp3704
sI9490000
(dp3705
sI58650000
(dp3706
sI54160000
(dp3707
sI46780000
(dp3708
sI41930000
(dp3709
sI45180000
(dp3710
sI2150000
(dp3711
sI31710000
(dp3712
sI39440000
(dp3713
sI13400000
(dp3714
sI35770000
(dp3715
sI57010000
(dp3716
sI57740000
(dp3717
sI32100000
(dp3718
sI25830000
(dp3719
sI53250000
(dp3720
sI48760000
(dp3721
sI28430000
(dp3722
sI44270000
(dp3723
sI24760000
(dp3724
sI28020000
(dp3725
sI35290000
(dp3726
sI610000
(dp3727
sI17420000
(dp3728
sI30210000
(dp3729
sI56830000
(dp3730
sI13750000
(dp3731
sI3210000
(dp3732
sI47850000
(dp3733
sI43360000
(dp3734
sI30560000
(dp3735
sI1680000
(dp3736
sI38870000
(dp3737
sI34380000
(dp3738
sI6410000
(dp3739
sI58490000
(dp3740
sI2740000
(dp3741
sI34590000
(dp3742
sI60410000
(dp3743
sI19550000
(dp3744
sI55920000
(dp3745
sI51430000
(dp3746
sI15880000
(dp3747
sI36780000
(dp3748
sI42450000
(dp3749
sI53170000
(dp3750
sI29020000
(dp3751
sI8250000
(dp3752
sI45830000
(dp3753
sI59500000
(dp3754
sI55010000
(dp3755
sI1200000
(dp3756
sI41160000
(dp3757
sI50520000
(dp3758
sI46030000
(dp3759
sI18010000
(dp3760
sI41540000
(dp3761
sI14340000
(dp3762
sI33110000
(dp3763
sI38450000
(dp3764
sI10670000
(dp3765
sI58590000
(dp3766
sI27480000
(dp3767
sI4580000
(dp3768
sI54100000
(dp3769
sI49610000
(dp3770
sI3330000
(dp3771
sI45120000
(dp3772
sI40630000
(dp3773
sI20140000
(dp3774
sI47730000
(dp3775
sI36140000
(dp3776
sI55700000
(dp3777
sI16470000
(dp3778
sI53760000
(dp3779
sI19200000
(dp3780
sI57680000
(dp3781
sI29610000
(dp3782
sI53190000
(dp3783
sI48700000
(dp3784
sI25940000
(dp3785
sI31630000
(dp3786
sI39720000
(dp3787
sI22270000
(dp3788
sI18600000
(dp3789
sI3100000
(dp3790
sI61260000
(dp3791
sI14930000
(dp3792
sI56770000
(dp3793
sI52280000
(dp3794
sI52220000
(dp3795
sI25770000
(dp3796
sI3800000
(dp3797
sI57180000
(dp3798
sI43300000
(dp3799
sI7590000
(dp3800
sI38810000
(dp3801
sI34320000
(dp3802
sI3920000
(dp3803
sI27960000
(dp3804
sI250000
(dp3805
sI60350000
(dp3806
sI11870000
(dp3807
sI17060000
(dp3808
sI30150000
(dp3809
sI51370000
(dp3810
sI46880000
(dp3811
sI13390000
(dp3812
sI42390000
(dp3813
sI37900000
(dp3814
sI9720000
(dp3815
sI1620000
(dp3816
sI33410000
(dp3817
sI28920000
(dp3818
sI47010000
(dp3819
sI9130000
(dp3820
sI22860000
(dp3821
sI24290000
(dp3822
sI59440000
(dp3823
sI54950000
(dp3824
sI19190000
(dp3825
sI50460000
(dp3826
sI45970000
(dp3827
sI15520000
(dp3828
sI26480000
(dp3829
sI36990000
(dp3830
sI32500000
(dp3831
sI11850000
(dp3832
sI28010000
(dp3833
sI59400000
(dp3834
sI8180000
(dp3835
sI49150000
(dp3836
sI58530000
(dp3837
sI24990000
(dp3838
sI54040000
(dp3839
sI49550000
(dp3840
sI21320000
(dp3841
sI20620000
(dp3842
sI45060000
(dp3843
sI40570000
(dp3844
sI55820000
(dp3845
sI17650000
(dp3846
sI36080000
(dp3847
sI31590000
(dp3848
sI13980000
(dp3849
sI22810000
(dp3850
sI10310000
(dp3851
sI13630000
(dp3852
sI53130000
(dp3853
sI47600000
(dp3854
sI35240000
(dp3855
sI48640000
(dp3856
sI44150000
(dp3857
sI43930000
(dp3858
sI39660000
(dp3859
sI35170000
(dp3860
sI40260000
(dp3861
sI37430000
(dp3862
sI50120000
(dp3863
sI16110000
(dp3864
sI61200000
(dp3865
sI12440000
(dp3866
sI29380000
(dp3867
sI12720000
(dp3868
sI8770000
(dp3869
sI43240000
(dp3870
sI50860000
(dp3871
sI25580000
(dp3872
sI31570000
(dp3873
sI34260000
(dp3874
sI1430000
(dp3875
sI18240000
(dp3876
sI23520000
(dp3877
sI60290000
(dp3878
sI55800000
(dp3879
sI14570000
(dp3880
sI51310000
(dp3881
sI51860000
(dp3882
sI5230000
(dp3883
sI42330000
(dp3884
sI37840000
(dp3885
sI40840000
(dp3886
sI27710000
(dp3887
sI33350000
(dp3888
sI3560000
(dp3889
sI38140000
(dp3890
sI55410000
(dp3891
sI59380000
(dp3892
sI20370000
(dp3893
sI54890000
(dp3894
sI50400000
(dp3895
sI37180000
(dp3896
sI30090000
(dp3897
sI45910000
(dp3898
sI33510000
(dp3899
sI36930000
(dp3900
sI32440000
(dp3901
sI29840000
(dp3902
sI52760000
(dp3903
sI26170000
(dp3904
sI58470000
(dp3905
sI2020000
(dp3906
sI34470000
(dp3907
sI49490000
(dp3908
sI18830000
(dp3909
sI31560000
(dp3910
sI40510000
(dp3911
sI36020000
(dp3912
sI15160000
(dp3913
sI26420000
(dp3914
sI11490000
(dp3915
sI59570000
(dp3916
sI7820000
(dp3917
sI38850000
(dp3918
sI13570000
(dp3919
sI53070000
(dp3920
sI4150000
(dp3921
sI48580000
(dp3922
sI44090000
(dp3923
sI480000
(dp3924
sI41040000
(dp3925
sI39600000
(dp3926
sI54560000
(dp3927
sI17290000
(dp3928
sI34100000
(dp3929
sI22750000
(dp3930
sI61140000
(dp3931
sI56650000
(dp3932
sI30430000
(dp3933
sI52160000
(dp3934
sI47670000
(dp3935
sI47240000
(dp3936
sI35180000
(dp3937
sI43180000
(dp3938
sI38690000
(dp3939
sI2610000
(dp3940
sI34200000
(dp3941
sI19420000
(dp3942
sI37370000
(dp3943
sI25220000
(dp3944
sI50290000
(dp3945
sI15750000
(dp3946
sI60230000
(dp3947
sI55740000
(dp3948
sI32560000
(dp3949
sI8840000
(dp3950
sI46760000
(dp3951
sI42270000
(dp3952
sI8410000
(dp3953
sI45700000
(dp3954
sI41750000
(dp3955
sI28800000
(dp3956
sI1070000
(dp3957
sI59320000
(dp3958
sI38360000
(dp3959
sI23460000
(dp3960
sI54830000
(dp3961
sI50340000
(dp3962
sI46020000
(dp3963
sI14210000
(dp3964
sI45850000
(dp3965
sI41360000
(dp3966
sI51500000
(dp3967
sI35890000
(dp3968
sI27350000
(dp3969
sI41010000
(dp3970
sI57520000
(dp3971
sI23680000
(dp3972
sI38080000
(dp3973
sI58410000
(dp3974
sI53920000
(dp3975
sI20010000
(dp3976
sI49430000
(dp3977
sI44940000
(dp3978
sI16340000
(dp3979
sI30030000
(dp3980
sI40450000
(dp3981
sI35960000
(dp3982
sI33150000
(dp3983
sI31470000
(dp3984
sI9000000
(dp3985
sI32220000
(dp3986
sI25810000
(dp3987
sI3720000
(dp3988
sI53010000
(dp3989
sI1660000
(dp3990
sI3690000
(dp3991
sI44030000
(dp3992
sI39540000
(dp3993
sI18470000
(dp3994
sI35050000
(dp3995
sI31730000
(dp3996
sI14800000
(dp3997
sI26360000
(dp3998
sI26070000
(dp3999
sI52090000
(dp4000
sI61080000
(dp4001
sI56590000
(dp4002
sI48420000
(dp4003
sI8070000
(dp4004
sI52100000
(dp4005
sI59740000
(dp4006
sI47610000
(dp4007
sI3620000
(dp4008
sI44750000
(dp4009
sI43120000
(dp4010
sI38630000
(dp4011
sI48980000
(dp4012
sI20600000
(dp4013
sI10260000
(dp4014
sI16930000
(dp4015
sI60170000
(dp4016
sI33740000
(dp4017
sI12450000
(dp4018
sI55680000
(dp4019
sI51190000
(dp4020
sI9590000
(dp4021
sI46700000
(dp4022
sI42210000
(dp4023
sI26400000
(dp4024
sI24880000
(dp4025
sI22450000
(dp4026
sI22730000
(dp4027
sI19060000
(dp4028
sI47550000
(dp4029
sI930000
(dp4030
sI15390000
(dp4031
sI10780000
(dp4032
sI50280000
(dp4033
sI45790000
(dp4034
sI1800000
(dp4035
sI49740000
(dp4036
sI41300000
(dp4037
sI36810000
(dp4038
sI28530000
(dp4039
sI32320000
(dp4040
sI45340000
(dp4041
sI21210000
(dp4042
sI1670000
(dp4043
sI710000
(dp4044
sI58350000
(dp4045
sI14360000
(dp4046
sI38000000
(dp4047
sI23400000
(dp4048
sI49370000
(dp4049
sI44880000
(dp4050
sI13850000
(dp4051
sI40390000
(dp4052
sI35900000
(dp4053
sI30660000
(dp4054
sI5110000
(dp4055
sI22430000
(dp4056
sI6510000
(dp4057
sI41180000
(dp4058
sI57440000
(dp4059
sI43800000
(dp4060
sI27780000
(dp4061
sI52950000
(dp4062
sI8960000
(dp4063
sI48460000
(dp4064
sI19650000
(dp4065
sI43970000
(dp4066
sI39480000
(dp4067
sI15980000
(dp4068
sI29970000
(dp4069
sI34990000
(dp4070
sI32790000
(dp4071
sI26010000
(dp4072
sI8640000
(dp4073
sI42400000
(dp4074
sI56530000
(dp4075
sI8050000
(dp4076
sI43060000
(dp4077
sI1300000
(dp4078
sI24110000
(dp4079
sI38570000
(dp4080
sI38590000
(dp4081
sI34920000
(dp4082
sI5820000
(dp4083
sI60110000
(dp4084
sI31250000
(dp4085
sI55620000
(dp4086
sI51130000
(dp4087
sI7100000
(dp4088
sI28490000
(dp4089
sI46640000
(dp4090
sI42150000
(dp4091
sI43400000
(dp4092
sI23910000
(dp4093
sI37660000
(dp4094
sI33170000
(dp4095
sI20240000
(dp4096
sI30680000
(dp4097
sI16570000
(dp4098
sI59200000
(dp4099
sI54710000
(dp4100
sI53860000
(dp4101
sI12390000
(dp4102
sI50220000
(dp4103
sI44140000
(dp4104
sI45730000
(dp4105
sI9230000
(dp4106
sI54920000
(dp4107
sI41240000
(dp4108
sI36750000
(dp4109
sI5560000
(dp4110
sI24820000
(dp4111
sI1890000
(dp4112
sI9090000
(dp4113
sI56070000
(dp4114
sI18700000
(dp4115
sI47490000
(dp4116
sI53800000
(dp4117
sI5320000
(dp4118
sI44820000
(dp4119
sI34120000
(dp4120
sI40330000
(dp4121
sI31840000
(dp4122
sI8720000
(dp4123
sI35840000
(dp4124
sI31350000
(dp4125
sI28170000
(dp4126
sI26860000
(dp4127
sI24500000
(dp4128
sI31390000
(dp4129
sI17880000
(dp4130
sI57380000
(dp4131
sI20830000
(dp4132
sI52890000
(dp4133
sI48400000
(dp4134
sI17160000
(dp4135
sI2860000
(dp4136
sI39420000
(dp4137
sI33970000
(dp4138
sI30300000
(dp4139
sI46010000
(dp4140
sI60960000
(dp4141
sI26630000
(dp4142
sI56470000
(dp4143
sI2480000
(dp4144
sI27720000
(dp4145
sI24840000
(dp4146
sI43000000
(dp4147
sI19290000
(dp4148
sI15620000
(dp4149
sI29910000
(dp4150
sI29530000
(dp4151
sI52850000
(dp4152
sI11950000
(dp4153
sI60050000
(dp4154
sI49240000
(dp4155
sI42340000
(dp4156
sI58600000
(dp4157
sI51070000
(dp4158
sI25090000
(dp4159
sI42090000
(dp4160
sI37600000
(dp4161
sI21420000
(dp4162
sI24050000
(dp4163
sI17750000
(dp4164
sI24130000
(dp4165
sI59340000
(dp4166
sI14080000
(dp4167
sI46720000
(dp4168
sI59140000
(dp4169
sI54650000
(dp4170
sI15560000
(dp4171
sI30890000
(dp4172
sI50160000
(dp4173
sI45670000
(dp4174
sI6740000
(dp4175
sI38670000
(dp4176
sI36690000
(dp4177
sI23550000
(dp4178
sI43570000
(dp4179
sI22150000
(dp4180
sI60280000
(dp4181
sI19880000
(dp4182
sI30620000
(dp4183
sI58230000
(dp4184
sI14240000
(dp4185
sI16210000
(dp4186
sI53740000
(dp4187
sI49250000
(dp4188
sI53500000
(dp4189
sI2090000
(dp4190
sI44760000
(dp4191
sI40270000
(dp4192
sI8870000
(dp4193
sI35780000
(dp4194
sI31290000
(dp4195
sI46160000
(dp4196
sI35000000
(dp4197
sI42490000
(dp4198
sI22790000
(dp4199
sI57320000
(dp4200
sI52830000
(dp4201
sI18340000
(dp4202
sI47430000
(dp4203
sI48340000
(dp4204
sI43850000
(dp4205
sI14670000
(dp4206
sI39360000
(dp4207
sI34870000
(dp4208
sI34290000
(dp4209
sI11000000
(dp4210
sI49620000
(dp4211
sI50800000
(dp4212
sI7330000
(dp4213
sI60900000
(dp4214
sI44620000
(dp4215
sI21090000
(dp4216
sI56410000
(dp4217
sI51920000
(dp4218
sI20470000
(dp4219
sI42940000
(dp4220
sI16800000
(dp4221
sI2800000
(dp4222
sI33960000
(dp4223
sI13130000
(dp4224
sI13510000
(dp4225
sI29940000
(dp4226
sI15230000
(dp4227
sI59990000
(dp4228
sI55500000
(dp4229
sI5790000
(dp4230
sI2750000
(dp4231
sI51010000
(dp4232
sI7020000
(dp4233
sI46520000
(dp4234
sI22600000
(dp4235
sI7180000
(dp4236
sI42030000
(dp4237
sI25010000
(dp4238
sI37540000
(dp4239
sI39410000
(dp4240
sI33050000
(dp4241
sI15260000
(dp4242
sI29850000
(dp4243
sI11590000
(dp4244
sI54590000
(dp4245
sI10600000
(dp4246
sI50100000
(dp4247
sI7920000
(dp4248
sI21800000
(dp4249
sI45610000
(dp4250
sI41120000
(dp4251
sI24730000
(dp4252
sI36630000
(dp4253
sI32140000
(dp4254
sI580000
(dp4255
sI23990000
(dp4256
sI23160000
(dp4257
sI17390000
(dp4258
sI58170000
(dp4259
sI13720000
(dp4260
sI5700000
(dp4261
sI53680000
(dp4262
sI49190000
(dp4263
sI30530000
(dp4264
sI44700000
(dp4265
sI40210000
(dp4266
sI47340000
(dp4267
sI28370000
(dp4268
sI31230000
(dp4269
sI23190000
(dp4270
sI19520000
(dp4271
sI20320000
(dp4272
sI57260000
(dp4273
sI52770000
(dp4274
sI8780000
(dp4275
sI36330000
(dp4276
sI48280000
(dp4277
sI43790000
(dp4278
sI32660000
(dp4279
sI53230000
(dp4280
sI39300000
(dp4281
sI34810000
(dp4282
sI28990000
(dp4283
sI30320000
(dp4284
sI45800000
(dp4285
sI24700000
(dp4286
sI60840000
(dp4287
sI56350000
(dp4288
sI42130000
(dp4289
sI47370000
(dp4290
sI17980000
(dp4291
sI26890000
(dp4292
sI42880000
(dp4293
sI38390000
(dp4294
sI14310000
(dp4295
sI33900000
(dp4296
sI10640000
(dp4297
sI39320000
(dp4298
sI6970000
(dp4299
sI59930000
(dp4300
sI11450000
(dp4301
sI23780000
(dp4302
sI21030000
(dp4303
sI2470000
(dp4304
sI20110000
(dp4305
sI45960000
(dp4306
sI37480000
(dp4307
sI32990000
(dp4308
sI16440000
(dp4309
sI23220000
(dp4310
sI53730000
(dp4311
sI15030000
(dp4312
sI50060000
(dp4313
sI35650000
(dp4314
sI54530000
(dp4315
sI10540000
(dp4316
sI25910000
(dp4317
sI45550000
(dp4318
sI1560000
(dp4319
sI41060000
(dp4320
sI22240000
(dp4321
sI27600000
(dp4322
sI36570000
(dp4323
sI32080000
(dp4324
sI18570000
(dp4325
sI23100000
(dp4326
sI14900000
(dp4327
sI9310000
(dp4328
sI58110000
(dp4329
sI14120000
(dp4330
sI11230000
(dp4331
sI49130000
(dp4332
sI5140000
(dp4333
sI36680000
(dp4334
sI650000
(dp4335
sI48520000
(dp4336
sI42220000
(dp4337
sI40150000
(dp4338
sI35660000
(dp4339
sI3890000
(dp4340
sI26680000
(dp4341
sI20700000
(dp4342
sI23930000
(dp4343
sI22190000
(dp4344
sI37510000
(dp4345
sI13210000
(dp4346
sI52710000
(dp4347
sI54320000
(dp4348
sI36360000
(dp4349
sI43730000
(dp4350
sI50650000
(dp4351
sI30260000
(dp4352
sI46980000
(dp4353
sI7830000
(dp4354
sI21280000
(dp4355
sI22830000
(dp4356
sI60780000
(dp4357
sI56290000
(dp4358
sI19160000
(dp4359
sI30500000
(dp4360
sI27400000
(dp4361
sI47310000
(dp4362
sI3320000
(dp4363
sI15490000
(dp4364
sI130000
(dp4365
sI38330000
(dp4366
sI11820000
(dp4367
sI32690000
(dp4368
sI33840000
(dp4369
sI8150000
(dp4370
sI24860000
(dp4371
sI59870000
(dp4372
sI4480000
(dp4373
sI34880000
(dp4374
sI11390000
(dp4375
sI50890000
(dp4376
sI6900000
(dp4377
sI810000
(dp4378
sI2410000
(dp4379
sI41910000
(dp4380
sI17620000
(dp4381
sI26830000
(dp4382
sI37420000
(dp4383
sI32930000
(dp4384
sI13950000
(dp4385
sI28440000
(dp4386
sI23950000
(dp4387
sI30760000
(dp4388
sI49500000
(dp4389
sI19460000
(dp4390
sI14970000
(dp4391
sI47570000
(dp4392
sI54470000
(dp4393
sI10480000
(dp4394
sI5990000
(dp4395
sI43900000
(dp4396
sI31210000
(dp4397
sI41000000
(dp4398
sI36510000
(dp4399
sI19750000
(dp4400
sI32020000
(dp4401
sI46130000
(dp4402
sI27530000
(dp4403
sI16080000
(dp4404
sI12920000
(dp4405
sI23040000
(dp4406
sI18550000
(dp4407
sI12410000
(dp4408
sI58050000
(dp4409
sI53560000
(dp4410
sI8740000
(dp4411
sI35590000
(dp4412
sI49070000
(dp4413
sI5080000
(dp4414
sI44580000
(dp4415
sI5070000
(dp4416
sI40090000
(dp4417
sI35600000
(dp4418
sI1400000
(dp4419
sI37780000
(dp4420
sI26620000
(dp4421
sI52620000
(dp4422
sI18210000
(dp4423
sI25350000
(dp4424
sI13150000
(dp4425
sI14540000
(dp4426
sI29730000
(dp4427
sI52650000
(dp4428
sI8660000
(dp4429
sI48160000
(dp4430
sI10870000
(dp4431
sI43670000
(dp4432
sI39180000
(dp4433
sI7200000
(dp4434
sI21680000
(dp4435
sI36850000
(dp4436
sI34690000
(dp4437
sI30200000
(dp4438
sI24010000
(dp4439
sI25710000
(dp4440
sI21220000
(dp4441
sI40820000
(dp4442
sI23870000
(dp4443
sI16730000
(dp4444
sI56230000
(dp4445
sI12240000
(dp4446
sI37150000
(dp4447
sI7750000
(dp4448
sI47250000
(dp4449
sI4570000
(dp4450
sI13000000
(dp4451
sI5580000
(dp4452
sI38270000
(dp4453
sI33780000
(dp4454
sI9330000
(dp4455
sI29290000
(dp4456
sI54760000
(dp4457
sI24800000
(dp4458
sI26140000
(dp4459
sI28250000
(dp4460
sI20310000
(dp4461
sI59810000
(dp4462
sI15820000
(dp4463
sI22470000
(dp4464
sI11330000
(dp4465
sI50830000
(dp4466
sI6840000
(dp4467
sI54840000
(dp4468
sI18800000
(dp4469
sI30440000
(dp4470
sI2350000
(dp4471
sI41850000
(dp4472
sI27570000
(dp4473
sI15130000
(dp4474
sI15090000
(dp4475
sI32870000
(dp4476
sI11460000
(dp4477
sI1910000
(dp4478
sI23890000
(dp4479
sI28270000
(dp4480
sI14910000
(dp4481
sI54410000
(dp4482
sI10420000
(dp4483
sI4120000
(dp4484
sI34820000
(dp4485
sI5930000
(dp4486
sI1440000
(dp4487
sI20930000
(dp4488
sI40940000
(dp4489
sI36450000
(dp4490
sI17260000
(dp4491
sI37010000
(dp4492
sI31960000
(dp4493
sI27470000
(dp4494
sI6790000
(dp4495
sI34070000
(dp4496
sI22980000
(dp4497
sI56320000
(dp4498
sI18490000
(dp4499
sI30400000
(dp4500
sI28960000
(dp4501
sI14000000
(dp4502
sI9510000
(dp4503
sI26730000
(dp4504
sI5020000
(dp4505
sI18290000
(dp4506
sI44520000
(dp4507
sI40030000
(dp4508
sI23060000
(dp4509
sI20910000
(dp4510
sI35540000
(dp4511
sI31050000
(dp4512
sI19390000
(dp4513
sI26560000
(dp4514
sI22070000
(dp4515
sI15720000
(dp4516
sI12860000
(dp4517
sI46300000
(dp4518
sI17580000
(dp4519
sI13090000
(dp4520
sI12050000
(dp4521
sI52590000
(dp4522
sI8600000
(dp4523
sI4110000
(dp4524
sI8380000
(dp4525
sI25290000
(dp4526
sI43610000
(dp4527
sI39120000
(dp4528
sI57800000
(dp4529
sI25190000
(dp4530
sI34630000
(dp4531
sI30140000
(dp4532
sI21520000
(dp4533
sI47960000
(dp4534
sI21160000
(dp4535
sI3260000
(dp4536
sI16670000
(dp4537
sI17850000
(dp4538
sI56170000
(dp4539
sI12180000
(dp4540
sI51680000
(dp4541
sI9010000
(dp4542
sI14180000
(dp4543
sI29670000
(dp4544
sI47190000
(dp4545
sI3200000
(dp4546
sI42700000
(dp4547
sI51470000
(dp4548
sI38210000
(dp4549
sI33720000
(dp4550
sI27320000
(dp4551
sI11380000
(dp4552
sI29230000
(dp4553
sI24740000
(dp4554
sI23650000
(dp4555
sI20250000
(dp4556
sI59750000
(dp4557
sI15760000
(dp4558
sI19980000
(dp4559
sI23810000
(dp4560
sI59280000
(dp4561
sI50770000
(dp4562
sI6780000
(dp4563
sI16310000
(dp4564
sI41790000
(dp4565
sI37300000
(dp4566
sI12640000
(dp4567
sI46480000
(dp4568
sI32810000
(dp4569
sI28320000
(dp4570
sI8970000
(dp4571
sI23830000
(dp4572
sI19340000
(dp4573
sI5300000
(dp4574
sI28190000
(dp4575
sI14850000
(dp4576
sI54350000
(dp4577
sI10360000
(dp4578
sI42590000
(dp4579
sI49860000
(dp4580
sI45370000
(dp4581
sI1380000
(dp4582
sI18440000
(dp4583
sI30380000
(dp4584
sI40880000
(dp4585
sI36390000
(dp4586
sI14770000
(dp4587
sI31900000
(dp4588
sI27740000
(dp4589
sI27410000
(dp4590
sI31580000
(dp4591
sI42810000
(dp4592
sI18430000
(dp4593
sI57930000
(dp4594
sI13940000
(dp4595
sI48390000
(dp4596
sI9450000
(dp4597
sI48950000
(dp4598
sI4960000
(dp4599
sI24240000
(dp4600
sI24520000
(dp4601
sI470000
(dp4602
sI39970000
(dp4603
sI20570000
(dp4604
sI35480000
(dp4605
sI30990000
(dp4606
sI16900000
(dp4607
sI36950000
(dp4608
sI26500000
(dp4609
sI22010000
(dp4610
sI13230000
(dp4611
sI17520000
(dp4612
sI13030000
(dp4613
sI30040000
(dp4614
sI28900000
(dp4615
sI4050000
(dp4616
sI43550000
(dp4617
sI26370000
(dp4618
sI39060000
(dp4619
sI34570000
(dp4620
sI22700000
(dp4621
sI20850000
(dp4622
sI30080000
(dp4623
sI25590000
(dp4624
sI19030000
(dp4625
sI21100000
(dp4626
sI16610000
(dp4627
sI15360000
(dp4628
sI2560000
(dp4629
sI56110000
(dp4630
sI12120000
(dp4631
sI46470000
(dp4632
sI7630000
(dp4633
sI11690000
(dp4634
sI3140000
(dp4635
sI8020000
(dp4636
sI35470000
(dp4637
sI4350000
(dp4638
sI57970000
(dp4639
sI24680000
(dp4640
sI680000
(dp4641
sI27420000
(dp4642
sI59690000
(dp4643
sI11210000
(dp4644
sI17490000
(dp4645
sI6720000
(dp4646
sI2230000
(dp4647
sI13820000
(dp4648
sI50090000
(dp4649
sI9180000
(dp4650
sI10150000
(dp4651
sI6480000
(dp4652
sI21560000
(dp4653
sI2810000
(dp4654
sI58780000
(dp4655
sI10300000
(dp4656
sI19620000
(dp4657
sI23750000
(dp4658
sI15950000
(dp4659
sI12280000
(dp4660
sI36180000
(dp4661
sI8610000
(dp4662
sI57870000
(dp4663
sI4940000
(dp4664
sI38370000
(dp4665
sI4900000
(dp4666
sI1270000
(dp4667
sI38560000
(dp4668
sI9840000
(dp4669
sI34890000
(dp4670
sI31220000
(dp4671
sI32510000
(dp4672
sI56960000
(dp4673
sI7070000
(dp4674
sI3400000
(dp4675
sI34700000
(dp4676
sI20210000
(dp4677
sI37020000
(dp4678
sI6170000
(dp4679
sI60540000
(dp4680
sI12870000
(dp4681
sI9200000
(dp4682
sI39080000
(dp4683
sI56660000
(dp4684
sI46490000
(dp4685
sI1860000
(dp4686
sI31030000
(dp4687
sI2120000
(dp4688
sI18670000
(dp4689
sI59630000
(dp4690
sI55140000
(dp4691
sI15000000
(dp4692
sI2500000
(dp4693
sI6660000
(dp4694
sI2170000
(dp4695
sI31810000
(dp4696
sI7660000
(dp4697
sI35410000
(dp4698
sI3990000
(dp4699
sI58720000
(dp4700
sI20800000
(dp4701
sI27360000
(dp4702
sI5750000
(dp4703
sI17130000
(dp4704
sI1260000
(dp4705
sI13460000
(dp4706
sI50030000
(dp4707
sI50750000
(dp4708
sI6120000
(dp4709
sI11260000
(dp4710
sI57810000
(dp4711
sI2450000
(dp4712
sI4840000
(dp4713
sI350000
(dp4714
sI39740000
(dp4715
sI33930000
(dp4716
sI15590000
(dp4717
sI52880000
(dp4718
sI25880000
(dp4719
sI48860000
(dp4720
sI58870000
(dp4721
sI17400000
(dp4722
sI49210000
(dp4723
sI56900000
(dp4724
sI25060000
(dp4725
sI28070000
(dp4726
sI3930000
(dp4727
sI21390000
(dp4728
sI60360000
(dp4729
sI17720000
(dp4730
sI9780000
(dp4731
sI14050000
(dp4732
sI60480000
(dp4733
sI55990000
(dp4734
sI10380000
(dp4735
sI22210000
(dp4736
sI7510000
(dp4737
sI3020000
(dp4738
sI27190000
(dp4739
sI61170000
(dp4740
sI3040000
(dp4741
sI24400000
(dp4742
sI29050000
(dp4743
sI19850000
(dp4744
sI16180000
(dp4745
sI6110000
(dp4746
sI55080000
(dp4747
sI12510000
(dp4748
sI2110000
(dp4749
sI49800000
(dp4750
sI28780000
(dp4751
sI5170000
(dp4752
sI1500000
(dp4753
sI20730000
(dp4754
sI58660000
(dp4755
sI2290000
(dp4756
sI38790000
(dp4757
sI10180000
(dp4758
sI5690000
(dp4759
sI14640000
(dp4760
sI53640000
(dp4761
sI10970000
(dp4762
sI58460000
(dp4763
sI6310000
(dp4764
sI48260000
(dp4765
sI25110000
(dp4766
sI3030000
(dp4767
sI310000
(dp4768
sI3630000
(dp4769
sI57750000
(dp4770
sI53260000
(dp4771
sI20440000
(dp4772
sI27300000
(dp4773
sI4780000
(dp4774
sI290000
(dp4775
sI16770000
(dp4776
sI13100000
(dp4777
sI39730000
(dp4778
sI9430000
(dp4779
sI5760000
(dp4780
sI31680000
(dp4781
sI8360000
(dp4782
sI3870000
(dp4783
sI43050000
(dp4784
sI39380000
(dp4785
sI23630000
(dp4786
sI35710000
(dp4787
sI11560000
(dp4788
sI25820000
(dp4789
sI60420000
(dp4790
sI55930000
(dp4791
sI49030000
(dp4792
sI7890000
(dp4793
sI7450000
(dp4794
sI4220000
(dp4795
sI42460000
(dp4796
sI37970000
(dp4797
sI550000
(dp4798
sI60530000
(dp4799
sI17360000
(dp4800
sI50680000
(dp4801
sI59510000
(dp4802
sI13690000
(dp4803
sI11030000
(dp4804
sI6540000
(dp4805
sI10020000
(dp4806
sI32390000
(dp4807
sI41550000
(dp4808
sI6350000
(dp4809
sI2680000
(dp4810
sI24340000
(dp4811
sI19490000
(dp4812
sI23240000
(dp4813
sI56260000
(dp4814
sI36300000
(dp4815
sI6050000
(dp4816
sI5630000
(dp4817
sI45130000
(dp4818
sI32630000
(dp4819
sI40640000
(dp4820
sI7210000
(dp4821
sI8480000
(dp4822
sI49200000
(dp4823
sI31660000
(dp4824
sI4810000
(dp4825
sI1140000
(dp4826
sI20670000
(dp4827
sI57690000
(dp4828
sI17950000
(dp4829
sI14280000
(dp4830
sI43340000
(dp4831
sI31090000
(dp4832
sI6940000
(dp4833
sI45530000
(dp4834
sI61270000
(dp4835
sI56780000
(dp4836
sI3270000
(dp4837
sI52290000
(dp4838
sI20080000
(dp4839
sI27240000
(dp4840
sI38820000
(dp4841
sI16410000
(dp4842
sI53700000
(dp4843
sI39670000
(dp4844
sI47720000
(dp4845
sI29550000
(dp4846
sI55870000
(dp4847
sI5400000
(dp4848
sI21380000
(dp4849
sI1730000
(dp4850
sI18540000
(dp4851
sI13330000
(dp4852
sI14870000
(dp4853
sI59450000
(dp4854
sI11200000
(dp4855
sI25760000
(dp4856
sI54960000
(dp4857
sI50470000
(dp4858
sI7530000
(dp4859
sI45980000
(dp4860
sI41490000
(dp4861
sI3860000
(dp4862
sI27950000
(dp4863
sI190000
(dp4864
sI17000000
(dp4865
sI9660000
(dp4866
sI58540000
(dp4867
sI54050000
(dp4868
sI54290000
(dp4869
sI49560000
(dp4870
sI45070000
(dp4871
sI50620000
(dp4872
sI22090000
(dp4873
sI26470000
(dp4874
sI31600000
(dp4875
sI22800000
(dp4876
sI34520000
(dp4877
sI57630000
(dp4878
sI19130000
(dp4879
sI53140000
(dp4880
sI48650000
(dp4881
sI15460000
(dp4882
sI46950000
(dp4883
sI170000
(dp4884
sI11790000
(dp4885
sI8120000
(dp4886
sI38900000
(dp4887
sI4450000
(dp4888
sI61210000
(dp4889
sI56720000
(dp4890
sI780000
(dp4891
sI52230000
(dp4892
sI47740000
(dp4893
sI17590000
(dp4894
sI13920000
(dp4895
sI33040000
(dp4896
sI10250000
(dp4897
sI60300000
(dp4898
sI47540000
(dp4899
sI35230000
(dp4900
sI55810000
(dp4901
sI51320000
(dp4902
sI43870000
(dp4903
sI46830000
(dp4904
sI19720000
(dp4905
sI6700000
(dp4906
sI33360000
(dp4907
sI36530000
(dp4908
sI28870000
(dp4909
sI32860000
(dp4910
sI8890000
(dp4911
sI59390000
(dp4912
sI54900000
(dp4913
sI29190000
(dp4914
sI50410000
(dp4915
sI6420000
(dp4916
sI45920000
(dp4917
sI46000000
(dp4918
sI41800000
(dp4919
sI59050000
(dp4920
sI36940000
(dp4921
sI1370000
(dp4922
sI32450000
(dp4923
sI18180000
(dp4924
sI13270000
(dp4925
sI14510000
(dp4926
sI58480000
(dp4927
sI53990000
(dp4928
sI10000000
(dp4929
sI51800000
(dp4930
sI25700000
(dp4931
sI45010000
(dp4932
sI27650000
(dp4933
sI36030000
(dp4934
sI31540000
(dp4935
sI44460000
(dp4936
sI7410000
(dp4937
sI40790000
(dp4938
sI55120000
(dp4939
sI57570000
(dp4940
sI37120000
(dp4941
sI9600000
(dp4942
sI53080000
(dp4943
sI4600000
(dp4944
sI12970000
(dp4945
sI44100000
(dp4946
sI39610000
(dp4947
sI29780000
(dp4948
sI22030000
(dp4949
sI35120000
(dp4950
sI6330000
(dp4951
sI26110000
(dp4952
sI55860000
(dp4953
sI21650000
(dp4954
sI61150000
(dp4955
sI1960000
(dp4956
sI24220000
(dp4957
sI12670000
(dp4958
sI52170000
(dp4959
sI18770000
(dp4960
sI47680000
(dp4961
sI43190000
(dp4962
sI15100000
(dp4963
sI46890000
(dp4964
sI38700000
(dp4965
sI34210000
(dp4966
sI11430000
(dp4967
sI7760000
(dp4968
sI28600000
(dp4969
sI60240000
(dp4970
sI4090000
(dp4971
sI55750000
(dp4972
sI51590000
(dp4973
sI51260000
(dp4974
sI420000
(dp4975
sI20550000
(dp4976
sI42280000
(dp4977
sI57340000
(dp4978
sI37790000
(dp4979
sI17230000
(dp4980
sI34040000
(dp4981
sI32980000
(dp4982
sI30370000
(dp4983
sI59330000
(dp4984
sI10850000
(dp4985
sI6220000
(dp4986
sI45410000
(dp4987
sI50350000
(dp4988
sI45860000
(dp4989
sI23030000
(dp4990
sI41370000
(dp4991
sI19360000
(dp4992
sI6640000
(dp4993
sI15690000
(dp4994
sI58420000
(dp4995
sI12020000
(dp4996
sI8830000
(dp4997
sI53930000
(dp4998
sI49440000
(dp4999
sI49310000
(dp5000
sI44950000
(dp5001
sI40460000
(dp5002
sI4680000
(dp5003
sI51980000
(dp5004
sI35970000
(dp5005
sI53810000
(dp5006
sI31480000
(dp5007
sI41970000
(dp5008
sI17820000
(dp5009
sI2970000
(dp5010
sI57510000
(dp5011
sI14150000
(dp5012
sI53020000
(dp5013
sI48530000
(dp5014
sI30960000
(dp5015
sI25640000
(dp5016
sI39550000
(dp5017
sI27290000
(dp5018
sI23620000
(dp5019
sI27830000
(dp5020
sI33030000
(dp5021
sI49540000
(dp5022
sI61090000
(dp5023
sI19950000
(dp5024
sI56600000
(dp5025
sI52110000
(dp5026
sI16280000
(dp5027
sI50500000
(dp5028
sI47620000
(dp5029
sI43130000
(dp5030
sI12610000
(dp5031
sI38640000
(dp5032
sI49900000
(dp5033
sI21970000
(dp5034
sI25750000
(dp5035
sI60180000
(dp5036
sI55690000
(dp5037
sI22080000
(dp5038
sI24160000
(dp5039
sI51200000
(dp5040
sI46710000
(dp5041
sI18410000
(dp5042
sI37730000
(dp5043
sI14740000
(dp5044
sI36590000
(dp5045
sI52030000
(dp5046
sI48360000
(dp5047
sI28540000
(dp5048
sI54780000
(dp5049
sI24210000
(dp5050
sI41310000
(dp5051
sI20540000
(dp5052
sI20490000
(dp5053
sI36820000
(dp5054
sI32330000
(dp5055
sI16870000
(dp5056
sI33680000
(dp5057
sI22680000
(dp5058
sI58360000
(dp5059
sI9530000
(dp5060
sI53870000
(dp5061
sI49380000
(dp5062
sI5860000
(dp5063
sI35110000
(dp5064
sI44890000
(dp5065
sI2190000
(dp5066
sI35910000
(dp5067
sI26930000
(dp5068
sI6580000
(dp5069
sI3710000
(dp5070
sI15330000
(dp5071
sI57450000
(dp5072
sI52960000
(dp5073
sI11660000
(dp5074
sI29250000
(dp5075
sI43980000
(dp5076
sI7990000
(dp5077
sI39490000
(dp5078
sI45280000
(dp5079
sI31440000
(dp5080
sI41610000
(dp5081
sI61030000
(dp5082
sI17460000
(dp5083
sI54110000
(dp5084
sI52050000
(dp5085
sI13790000
(dp5086
sI43070000
(dp5087
sI30600000
(dp5088
sI35820000
(dp5089
sI6450000
(dp5090
sI43740000
(dp5091
sI27770000
(dp5092
sI60120000
(dp5093
sI55630000
(dp5094
sI19590000
(dp5095
sI51140000
(dp5096
sI46650000
(dp5097
sI15920000
(dp5098
sI50440000
(dp5099
sI42160000
(dp5100
sI37670000
(dp5101
sI12250000
(dp5102
sI8580000
(dp5103
sI11670000
(dp5104
sI59210000
(dp5105
sI4910000
(dp5106
sI54720000
(dp5107
sI50230000
(dp5108
sI6240000
(dp5109
sI1240000
(dp5110
sI34340000
(dp5111
sI56200000
(dp5112
sI41250000
(dp5113
sI38530000
(dp5114
sI36760000
(dp5115
sI32270000
(dp5116
sI34860000
(dp5117
sI16050000
(dp5118
sI23290000
(dp5119
sI31190000
(dp5120
sI58300000
(dp5121
sI7040000
(dp5122
sI28480000
(dp5123
sI49320000
(dp5124
sI44830000
(dp5125
sI3370000
(dp5126
sI40340000
(dp5127
sI20180000
(dp5128
sI20430000
(dp5129
sI16510000
(dp5130
sI12840000
(dp5131
sI22620000
(dp5132
sI57390000
(dp5133
sI52900000
(dp5134
sI9170000
(dp5135
sI48410000
(dp5136
sI43920000
(dp5137
sI5500000
(dp5138
sI24810000
(dp5139
sI34940000
(dp5140
sI1830000
(dp5141
sI58630000
(dp5142
sI18640000
(dp5143
sI16760000
(dp5144
sI60970000
(dp5145
sI56480000
(dp5146
sI35450000
(dp5147
sI51990000
(dp5148
sI47500000
(dp5149
sI31780000
(dp5150
sI8710000
(dp5151
sI43010000
(dp5152
sI30130000
(dp5153
sI38520000
(dp5154
sI48590000
(dp5155
sI34030000
(dp5156
sI24440000
(dp5157
sI10900000
(dp5158
sI59780000
(dp5159
sI20770000
(dp5160
sI60060000
(dp5161
sI55570000
(dp5162
sI17100000
(dp5163
sI43810000
(dp5164
sI54770000
(dp5165
sI46590000
(dp5166
sI42100000
(dp5167
sI13430000
(dp5168
sI37610000
(dp5169
sI33120000
(dp5170
sI9760000
(dp5171
sI5040000
(dp5172
sI6090000
(dp5173
sI59150000
(dp5174
sI2420000
(dp5175
sI7230000
(dp5176
sI54660000
(dp5177
sI50170000
(dp5178
sI19230000
(dp5179
sI45680000
(dp5180
sI41190000
(dp5181
sI36040000
(dp5182
sI40140000
(dp5183
sI32210000
(dp5184
sI11890000
(dp5185
sI28700000
(dp5186
sI21850000
(dp5187
sI58240000
(dp5188
sI53750000
(dp5189
sI25030000
(dp5190
sI49260000
(dp5191
sI44770000
(dp5192
sI880000
(dp5193
sI24040000
(dp5194
sI56370000
(dp5195
sI35790000
(dp5196
sI17690000
(dp5197
sI31300000
(dp5198
sI14020000
(dp5199
sI36470000
(dp5200
sI10350000
(dp5201
sI52840000
(dp5202
sI48350000
(dp5203
sI6680000
(dp5204
sI28420000
(dp5205
sI43860000
(dp5206
sI39370000
(dp5207
sI23490000
(dp5208
sI24710000
(dp5209
sI19820000
(dp5210
sI10130000
(dp5211
sI2570000
(dp5212
sI16150000
(dp5213
sI60910000
(dp5214
sI56420000
(dp5215
sI53440000
(dp5216
sI43040000
(dp5217
sI51930000
(dp5218
sI47440000
(dp5219
sI49770000
(dp5220
sI47090000
(dp5221
sI46100000
(dp5222
sI24750000
(dp5223
sI21950000
(dp5224
sI20500000
(dp5225
sI60000000
(dp5226
sI18280000
(dp5227
sI6460000
(dp5228
sI55510000
(dp5229
sI51020000
(dp5230
sI14610000
(dp5231
sI46530000
(dp5232
sI42040000
(dp5233
sI31420000
(dp5234
sI29130000
(dp5235
sI37550000
(dp5236
sI33060000
(dp5237
sI27750000
(dp5238
sI42820000
(dp5239
sI24080000
(dp5240
sI10840000
(dp5241
sI59090000
(dp5242
sI20410000
(dp5243
sI50110000
(dp5244
sI16740000
(dp5245
sI43750000
(dp5246
sI13070000
(dp5247
sI32150000
(dp5248
sI50360000
(dp5249
sI4980000
(dp5250
sI5730000
(dp5251
sI58180000
(dp5252
sI53690000
(dp5253
sI43020000
(dp5254
sI7170000
(dp5255
sI44710000
(dp5256
sI720000
(dp5257
sI39350000
(dp5258
sI40220000
(dp5259
sI15200000
(dp5260
sI40080000
(dp5261
sI11530000
(dp5262
sI57270000
(dp5263
sI28340000
(dp5264
sI21790000
(dp5265
sI52780000
(dp5266
sI48290000
(dp5267
sI24670000
(dp5268
sI41480000
(dp5269
sI3500000
(dp5270
sI30330000
(dp5271
sI17330000
(dp5272
sI56540000
(dp5273
sI34140000
(dp5274
sI36410000
(dp5275
sI56360000
(dp5276
sI51870000
(dp5277
sI9990000
(dp5278
sI47380000
(dp5279
sI42890000
(dp5280
sI6320000
(dp5281
sI48840000
(dp5282
sI38400000
(dp5283
sI23130000
(dp5284
sI29420000
(dp5285
sI24930000
(dp5286
sI39940000
(dp5287
sI30550000
(dp5288
sI57400000
(dp5289
sI59940000
(dp5290
sI36270000
(dp5291
sI55450000
(dp5292
sI50960000
(dp5293
sI32600000
(dp5294
sI22500000
(dp5295
sI41980000
(dp5296
sI58020000
(dp5297
sI28930000
(dp5298
sI33000000
(dp5299
sI28510000
(dp5300
sI45740000
(dp5301
sI14450000
(dp5302
sI21590000
(dp5303
sI59030000
(dp5304
sI54540000
(dp5305
sI17920000
(dp5306
sI47360000
(dp5307
sI50050000
(dp5308
sI6060000
(dp5309
sI58760000
(dp5310
sI45560000
(dp5311
sI14250000
(dp5312
sI41070000
(dp5313
sI36580000
(dp5314
sI10580000
(dp5315
sI39310000
(dp5316
sI32090000
(dp5317
sI6910000
(dp5318
sI3240000
(dp5319
sI21020000
(dp5320
sI53630000
(dp5321
sI9640000
(dp5322
sI49140000
(dp5323
sI20050000
(dp5324
sI44650000
(dp5325
sI40160000
(dp5326
sI16380000
(dp5327
sI43690000
(dp5328
sI35670000
(dp5329
sI31180000
(dp5330
sI33190000
(dp5331
sI29520000
(dp5332
sI4920000
(dp5333
sI57210000
(dp5334
sI13220000
(dp5335
sI25850000
(dp5336
sI49480000
(dp5337
sI52720000
(dp5338
sI48230000
(dp5339
sI22180000
(dp5340
sI27590000
(dp5341
sI39250000
(dp5342
sI18510000
(dp5343
sI30270000
(dp5344
sI14840000
(dp5345
sI40020000
(dp5346
sI60790000
(dp5347
sI11170000
(dp5348
sI12310000
(dp5349
sI51810000
(dp5350
sI7500000
(dp5351
sI1250000
(dp5352
sI42830000
(dp5353
sI3830000
(dp5354
sI38340000
(dp5355
sI33850000
(dp5356
sI160000
(dp5357
sI3440000
(dp5358
sI16970000
(dp5359
sI59880000
(dp5360
sI40200000
(dp5361
sI55390000
(dp5362
sI54260000
(dp5363
sI36350000
(dp5364
sI50900000
(dp5365
sI46410000
(dp5366
sI50590000
(dp5367
sI41920000
(dp5368
sI46920000
(dp5369
sI28300000
(dp5370
sI22770000
(dp5371
sI19100000
(dp5372
sI50970000
(dp5373
sI58970000
(dp5374
sI15430000
(dp5375
sI11760000
(dp5376
sI22440000
(dp5377
sI36520000
(dp5378
sI8090000
(dp5379
sI4420000
(dp5380
sI24630000
(dp5381
sI58060000
(dp5382
sI750000
(dp5383
sI53570000
(dp5384
sI49080000
(dp5385
sI17560000
(dp5386
sI37060000
(dp5387
sI44590000
(dp5388
sI40100000
(dp5389
sI58930000
(dp5390
sI13890000
(dp5391
sI31120000
(dp5392
sI10220000
(dp5393
sI29010000
(dp5394
sI4390000
(dp5395
sI47510000
(dp5396
sI57150000
(dp5397
sI43840000
(dp5398
sI20960000
(dp5399
sI48170000
(dp5400
sI59670000
(dp5401
sI43680000
(dp5402
sI19690000
(dp5403
sI39190000
(dp5404
sI16020000
(dp5405
sI23150000
(dp5406
sI5130000
(dp5407
sI38150000
(dp5408
sI12350000
(dp5409
sI60730000
(dp5410
sI8680000
(dp5411
sI25340000
(dp5412
sI56240000
(dp5413
sI51750000
(dp5414
sI25490000
(dp5415
sI47260000
(dp5416
sI42770000
(dp5417
sI1340000
(dp5418
sI7050000
(dp5419
sI5870000
(dp5420
sI18150000
(dp5421
sI14480000
(dp5422
sI19480000
(dp5423
sI59820000
(dp5424
sI55330000
(dp5425
sI10810000
(dp5426
sI50840000
(dp5427
sI46350000
(dp5428
sI7140000
(dp5429
sI1190000
(dp5430
sI41860000
(dp5431
sI56140000
(dp5432
sI44430000
(dp5433
sI12360000
(dp5434
sI40760000
(dp5435
sI3380000
(dp5436
sI58910000
(dp5437
sI37090000
(dp5438
sI54420000
(dp5439
sI53900000
(dp5440
sI26050000
(dp5441
sI45440000
(dp5442
sI40950000
(dp5443
sI9270000
(dp5444
sI36460000
(dp5445
sI31970000
(dp5446
sI26080000
(dp5447
sI28240000
(dp5448
sI22990000
(dp5449
sI1930000
(dp5450
sI58000000
(dp5451
sI18740000
(dp5452
sI40670000
(dp5453
sI49020000
(dp5454
sI44530000
(dp5455
sI40040000
(dp5456
sI35550000
(dp5457
sI11400000
(dp5458
sI22380000
(dp5459
sI31060000
(dp5460
sI48690000
(dp5461
sI4060000
(dp5462
sI24570000
(dp5463
sI57090000
(dp5464
sI390000
(dp5465
sI48110000
(dp5466
sI43620000
(dp5467
sI37680000
(dp5468
sI6280000
(dp5469
sI39130000
(dp5470
sI34640000
(dp5471
sI9570000
(dp5472
sI54490000
(dp5473
sI59100000
(dp5474
sI25660000
(dp5475
sI30340000
(dp5476
sI28950000
(dp5477
sI60670000
(dp5478
sI56180000
(dp5479
sI26670000
(dp5480
sI51690000
(dp5481
sI47200000
(dp5482
sI23000000
(dp5483
sI10660000
(dp5484
sI42710000
(dp5485
sI38220000
(dp5486
sI19330000
(dp5487
sI33730000
(dp5488
sI29240000
(dp5489
sI15660000
(dp5490
sI33330000
(dp5491
sI11990000
(dp5492
sI59760000
(dp5493
sI21810000
(dp5494
sI55270000
(dp5495
sI49280000
(dp5496
sI35520000
(dp5497
sI46290000
(dp5498
sI2300000
(dp5499
sI4650000
(dp5500
sI37310000
(dp5501
sI32820000
(dp5502
sI980000
(dp5503
sI6990000
(dp5504
sI17790000
(dp5505
sI58850000
(dp5506
sI34600000
(dp5507
sI29660000
(dp5508
sI49870000
(dp5509
sI30930000
(dp5510
sI45380000
(dp5511
sI40890000
(dp5512
sI27260000
(dp5513
sI21610000
(dp5514
sI36400000
(dp5515
sI31910000
(dp5516
sI23590000
(dp5517
sI22930000
(dp5518
sI12530000
(dp5519
sI19920000
(dp5520
sI54520000
(dp5521
sI57940000
(dp5522
sI16250000
(dp5523
sI48960000
(dp5524
sI44470000
(dp5525
sI12580000
(dp5526
sI36230000
(dp5527
sI39980000
(dp5528
sI40540000
(dp5529
sI35490000
(dp5530
sI29390000
(dp5531
sI31000000
(dp5532
sI5240000
(dp5533
sI28180000
(dp5534
sI42530000
(dp5535
sI57030000
(dp5536
sI13040000
(dp5537
sI52540000
(dp5538
sI18380000
(dp5539
sI40610000
(dp5540
sI43560000
(dp5541
sI39070000
(dp5542
sI14710000
(dp5543
sI34580000
(dp5544
sI52000000
(dp5545
sI42800000
(dp5546
sI48330000
(dp5547
sI60610000
(dp5548
sI56120000
(dp5549
sI24180000
(dp5550
sI34750000
(dp5551
sI51630000
(dp5552
sI4510000
(dp5553
sI47140000
(dp5554
sI20510000
(dp5555
sI42650000
(dp5556
sI38160000
(dp5557
sI16840000
(dp5558
sI26700000
(dp5559
sI13170000
(dp5560
sI42760000
(dp5561
sI59700000
(dp5562
sI9500000
(dp5563
sI28890000
(dp5564
sI55210000
(dp5565
sI50720000
(dp5566
sI5830000
(dp5567
sI46230000
(dp5568
sI41740000
(dp5569
sI22640000
(dp5570
sI20840000
(dp5571
sI37250000
(dp5572
sI18970000
(dp5573
sI15300000
(dp5574
sI2550000
(dp5575
sI58790000
(dp5576
sI11630000
(dp5577
sI54300000
(dp5578
sI49810000
(dp5579
sI48920000
(dp5580
sI4740000
(dp5581
sI55000000
(dp5582
sI40830000
(dp5583
sI36340000
(dp5584
sI45250000
(dp5585
sI31850000
(dp5586
sI41580000
(dp5587
sI17170000
(dp5588
sI33480000
(dp5589
sI61100000
(dp5590
sI17430000
(dp5591
sI57880000
(dp5592
sI53390000
(dp5593
sI13760000
(dp5594
sI29600000
(dp5595
sI48900000
(dp5596
sI44410000
(dp5597
sI10090000
(dp5598
sI39920000
(dp5599
sI26900000
(dp5600
sI21550000
(dp5601
sI23230000
(dp5602
sI56970000
(dp5603
sI12980000
(dp5604
sI19560000
(dp5605
sI44220000
(dp5606
sI52480000
(dp5607
sI47990000
(dp5608
sI15890000
(dp5609
sI43500000
(dp5610
sI12220000
(dp5611
sI36170000
(dp5612
sI7690000
(dp5613
sI49510000
(dp5614
sI24200000
(dp5615
sI45840000
(dp5616
sI7640000
(dp5617
sI46460000
(dp5618
sI42170000
(dp5619
sI3090000
(dp5620
sI38500000
(dp5621
sI40550000
(dp5622
sI38100000
(dp5623
sI33610000
(dp5624
sI14350000
(dp5625
sI57960000
(dp5626
sI10680000
(dp5627
sI22260000
(dp5628
sI59640000
(dp5629
sI48370000
(dp5630
sI27490000
(dp5631
sI55150000
(dp5632
sI23820000
(dp5633
sI24450000
(dp5634
sI46170000
(dp5635
sI2180000
(dp5636
sI41680000
(dp5637
sI20150000
(dp5638
sI37190000
(dp5639
sI32700000
(dp5640
sI16480000
(dp5641
sI36880000
(dp5642
sI23720000
(dp5643
sI12810000
(dp5644
sI58730000
(dp5645
sI54240000
(dp5646
sI9140000
(dp5647
sI8350000
(dp5648
sI42930000
(dp5649
sI49750000
(dp5650
sI5470000
(dp5651
sI36280000
(dp5652
sI22280000
(dp5653
sI300000
(dp5654
sI31790000
(dp5655
sI18610000
(dp5656
sI14940000
(dp5657
sI22970000
(dp5658
sI53330000
(dp5659
sI11270000
(dp5660
sI44350000
(dp5661
sI39860000
(dp5662
sI28080000
(dp5663
sI25160000
(dp5664
sI60850000
(dp5665
sI5640000
(dp5666
sI35370000
(dp5667
sI30880000
(dp5668
sI24410000
(dp5669
sI260000
(dp5670
sI47830000
(dp5671
sI56910000
(dp5672
sI33650000
(dp5673
sI17070000
(dp5674
sI52420000
(dp5675
sI47930000
(dp5676
sI54360000
(dp5677
sI39780000
(dp5678
sI43440000
(dp5679
sI38950000
(dp5680
sI9730000
(dp5681
sI34460000
(dp5682
sI26540000
(dp5683
sI21490000
(dp5684
sI60490000
(dp5685
sI22870000
(dp5686
sI56000000
(dp5687
sI51510000
(dp5688
sI7520000
(dp5689
sI39680000
(dp5690
sI44160000
(dp5691
sI47020000
(dp5692
sI15530000
(dp5693
sI38040000
(dp5694
sI33550000
(dp5695
sI52820000
(dp5696
sI36110000
(dp5697
sI28670000
(dp5698
sI24370000
(dp5699
sI59580000
(dp5700
sI25000000
(dp5701
sI28060000
(dp5702
sI6610000
(dp5703
sI46110000
(dp5704
sI21330000
(dp5705
sI41620000
(dp5706
sI2850000
(dp5707
sI37130000
(dp5708
sI17660000
(dp5709
sI30250000
(dp5710
sI32640000
(dp5711
sI28150000
(dp5712
sI13990000
(dp5713
sI23660000
(dp5714
sI30800000
(dp5715
sI22200000
(dp5716
sI58670000
(dp5717
sI54180000
(dp5718
sI27130000
(dp5719
sI49690000
(dp5720
sI2980000
(dp5721
sI3910000
(dp5722
sI36220000
(dp5723
sI19790000
(dp5724
sI46400000
(dp5725
sI16120000
(dp5726
sI26580000
(dp5727
sI57760000
(dp5728
sI53410000
(dp5729
sI53270000
(dp5730
sI48780000
(dp5731
sI29260000
(dp5732
sI39010000
(dp5733
sI44290000
(dp5734
sI39800000
(dp5735
sI43100000
(dp5736
sI46070000
(dp5737
sI35310000
(dp5738
sI30820000
(dp5739
sI21920000
(dp5740
sI51440000
(dp5741
sI21840000
(dp5742
sI18250000
(dp5743
sI56850000
(dp5744
sI35060000
(dp5745
sI22910000
(dp5746
sI47870000
(dp5747
sI43380000
(dp5748
sI10910000
(dp5749
sI7880000
(dp5750
sI38890000
(dp5751
sI34400000
(dp5752
sI7240000
(dp5753
sI35340000
(dp5754
sI3570000
(dp5755
sI55340000
(dp5756
sI60430000
(dp5757
sI20380000
(dp5758
sI37530000
(dp5759
sI55940000
(dp5760
sI32520000
(dp5761
sI51450000
(dp5762
sI16710000
(dp5763
sI46960000
(dp5764
sI42470000
(dp5765
sI33520000
(dp5766
sI29480000
(dp5767
sI33490000
(dp5768
sI9370000
(dp5769
sI46660000
(dp5770
sI21430000
(dp5771
sI45320000
(dp5772
sI59520000
(dp5773
sI55030000
(dp5774
sI42990000
(dp5775
sI50540000
(dp5776
sI46050000
(dp5777
sI18840000
(dp5778
sI33860000
(dp5779
sI41560000
(dp5780
sI37070000
(dp5781
sI15170000
(dp5782
sI32580000
(dp5783
sI31980000
(dp5784
sI36050000
(dp5785
sI48790000
(dp5786
sI54120000
(dp5787
sI49630000
(dp5788
sI24640000
(dp5789
sI28000000
(dp5790
sI24540000
(dp5791
sI1150000
(dp5792
sI40650000
(dp5793
sI20970000
(dp5794
sI36160000
(dp5795
sI31670000
(dp5796
sI17300000
(dp5797
sI30190000
(dp5798
sI22690000
(dp5799
sI34110000
(dp5800
sI57700000
(dp5801
sI9960000
(dp5802
sI22140000
(dp5803
sI53210000
(dp5804
sI48720000
(dp5805
sI26770000
(dp5806
sI44230000
(dp5807
sI240000
(dp5808
sI2620000
(dp5809
sI24330000
(dp5810
sI39910000
(dp5811
sI21780000
(dp5812
sI61280000
(dp5813
sI36240000
(dp5814
sI26520000
(dp5815
sI56790000
(dp5816
sI12800000
(dp5817
sI52300000
(dp5818
sI32570000
(dp5819
sI47810000
(dp5820
sI43320000
(dp5821
sI8420000
(dp5822
sI28710000
(dp5823
sI25230000
(dp5824
sI26760000
(dp5825
sI25360000
(dp5826
sI1080000
(dp5827
sI30900000
(dp5828
sI60370000
(dp5829
sI17890000
(dp5830
sI51390000
(dp5831
sI7400000
(dp5832
sI2910000
(dp5833
sI14220000
(dp5834
sI22850000
(dp5835
sI42410000
(dp5836
sI37920000
(dp5837
sI10550000
(dp5838
sI33430000
(dp5839
sI28940000
(dp5840
sI6880000
(dp5841
sI35280000
(dp5842
sI23690000
(dp5843
sI59460000
(dp5844
sI5980000
(dp5845
sI54970000
(dp5846
sI20020000
(dp5847
sI37470000
(dp5848
sI50480000
(dp5849
sI45990000
(dp5850
sI2000000
(dp5851
sI16350000
(dp5852
sI41500000
(dp5853
sI33160000
(dp5854
sI8940000
(dp5855
sI23540000
(dp5856
sI29490000
(dp5857
sI58550000
(dp5858
sI5340000
(dp5859
sI890000
(dp5860
sI54060000
(dp5861
sI45490000
(dp5862
sI49570000
(dp5863
sI42630000
(dp5864
sI45080000
(dp5865
sI40590000
(dp5866
sI18480000
(dp5867
sI33800000
(dp5868
sI36100000
(dp5869
sI31610000
(dp5870
sI14810000
(dp5871
sI27120000
(dp5872
sI22630000
(dp5873
sI11140000
(dp5874
sI35990000
(dp5875
sI57640000
(dp5876
sI7470000
(dp5877
sI48660000
(dp5878
sI44170000
(dp5879
sI180000
(dp5880
sI24280000
(dp5881
sI7460000
(dp5882
sI45170000
(dp5883
sI8200000
(dp5884
sI35190000
(dp5885
sI20610000
(dp5886
sI30700000
(dp5887
sI16940000
(dp5888
sI19890000
(dp5889
sI21720000
(dp5890
sI61220000
(dp5891
sI54230000
(dp5892
sI36210000
(dp5893
sI12740000
(dp5894
sI50560000
(dp5895
sI11840000
(dp5896
sI3760000
(dp5897
sI43260000
(dp5898
sI26410000
(dp5899
sI34280000
(dp5900
sI29790000
(dp5901
sI22740000
(dp5902
sI3790000
(dp5903
sI25300000
(dp5904
sI20810000
(dp5905
sI19070000
(dp5906
sI60310000
(dp5907
sI16320000
(dp5908
sI11830000
(dp5909
sI15400000
(dp5910
sI36700000
(dp5911
sI51330000
(dp5912
sI7340000
(dp5913
sI46840000
(dp5914
sI11730000
(dp5915
sI42350000
(dp5916
sI37860000
(dp5917
sI8060000
(dp5918
sI28650000
(dp5919
sI33370000
(dp5920
sI24870000
(dp5921
sI24390000
(dp5922
sI19900000
(dp5923
sI21200000
(dp5924
sI41080000
(dp5925
sI54910000
(dp5926
sI6430000
(dp5927
sI17530000
(dp5928
sI45930000
(dp5929
sI1940000
(dp5930
sI41440000
(dp5931
sI13860000
(dp5932
sI12550000
(dp5933
sI54940000
(dp5934
sI32460000
(dp5935
sI51150000
(dp5936
sI27970000
(dp5937
sI23480000
(dp5938
sI47480000
(dp5939
sI24980000
(dp5940
sI18990000
(dp5941
sI38600000
(dp5942
sI14500000
(dp5943
sI23330000
(dp5944
sI10010000
(dp5945
sI5520000
(dp5946
sI6150000
(dp5947
sI19660000
(dp5948
sI37410000
(dp5949
sI40530000
(dp5950
sI15990000
(dp5951
sI31550000
(dp5952
sI27060000
(dp5953
sI32800000
(dp5954
sI29360000
(dp5955
sI22570000
(dp5956
sI18080000
(dp5957
sI8650000
(dp5958
sI13590000
(dp5959
sI53090000
(dp5960
sI9100000
(dp5961
sI25460000
(dp5962
sI11070000
(dp5963
sI4610000
(dp5964
sI44110000
(dp5965
sI120000
(dp5966
sI1310000
(dp5967
sI45660000
(dp5968
sI18120000
(dp5969
sI54220000
(dp5970
sI30640000
(dp5971
sI26150000
(dp5972
sI34930000
(dp5973
sI21660000
(dp5974
sI61160000
(dp5975
sI57160000
(dp5976
sI56670000
(dp5977
sI51740000
(dp5978
sI5210000
(dp5979
sI52180000
(dp5980
sI47690000
(dp5981
sI3700000
(dp5982
sI7110000
(dp5983
sI43200000
(dp5984
sI38710000
(dp5985
sI44400000
(dp5986
sI17640000
(dp5987
sI34220000
(dp5988
sI8370000
(dp5989
sI40730000
(dp5990
sI25240000
(dp5991
sI20750000
(dp5992
sI16580000
(dp5993
sI30070000
(dp5994
sI60250000
(dp5995
sI16260000
(dp5996
sI11770000
(dp5997
sI12910000
(dp5998
sI51270000
(dp5999
sI2790000
(dp6000
sI29720000
(dp6001
sI22020000
(dp6002
sI37800000
(dp6003
sI33310000
(dp6004
sI5570000
(dp6005
sI28820000
(dp6006
sI1900000
(dp6007
sI44690000
(dp6008
sI47880000
(dp6009
sI15350000
(dp6010
sI18710000
(dp6011
sI54850000
(dp6012
sI10860000
(dp6013
sI6370000
(dp6014
sI15040000
(dp6015
sI36640000
(dp6016
sI45870000
(dp6017
sI1880000
(dp6018
sI41380000
(dp6019
sI11370000
(dp6020
sI36890000
(dp6021
sI32400000
(dp6022
sI7700000
(dp6023
sI38830000
(dp6024
sI23420000
(dp6025
sI24510000
(dp6026
sI58430000
(dp6027
sI14440000
(dp6028
sI9950000
(dp6029
sI360000
(dp6030
sI41020000
(dp6031
sI27100000
(dp6032
sI5460000
(dp6033
sI970000
(dp6034
sI37650000
(dp6035
sI40470000
(dp6036
sI35980000
(dp6037
sI49360000
(dp6038
sI33980000
(dp6039
sI12490000
(dp6040
sI31490000
(dp6041
sI27000000
(dp6042
sI30310000
(dp6043
sI22510000
(dp6044
sI18020000
(dp6045
sI26640000
(dp6046
sI24920000
(dp6047
sI13530000
(dp6048
sI30470000
(dp6049
sI53030000
(dp6050
sI9040000
(dp6051
sI43450000
(dp6052
sI4550000
(dp6053
sI44050000
(dp6054
sI60000
(dp6055
sI19300000
(dp6056
sI37350000
(dp6057
sI35070000
(dp6058
sI30580000
(dp6059
sI15630000
(dp6060
sI26090000
(dp6061
sI21600000
(dp6062
sI11960000
(dp6063
sI29300000
(dp6064
sI17110000
(dp6065
sI56610000
(dp6066
sI12620000
(dp6067
sI28770000
(dp6068
sI8130000
(dp6069
sI47630000
(dp6070
sI3640000
(dp6071
sI25100000
(dp6072
sI770000
(dp6073
sI43140000
(dp6074
sI38650000
(dp6075
sI950000
(dp6076
sI34160000
(dp6077
sI29320000
(dp6078
sI17760000
(dp6079
sI23440000
(dp6080
sI20690000
(dp6081
sI60190000
(dp6082
sI14090000
(dp6083
sI11710000
(dp6084
sI51210000
(dp6085
sI51380000
(dp6086
sI5150000
(dp6087
sI51250000
(dp6088
sI57330000
(dp6089
sI2730000
(dp6090
sI42230000
(dp6091
sI27230000
(dp6092
sI37740000
(dp6093
sI33250000
(dp6094
sI44040000
(dp6095
sI48300000
(dp6096
sI28760000
(dp6097
sI24270000
(dp6098
sI40370000
(dp6099
sI19780000
(dp6100
sI8540000
(dp6101
sI15290000
(dp6102
sI16220000
(dp6103
sI30010000
(dp6104
sI10800000
(dp6105
sI50300000
(dp6106
sI53510000
(dp6107
sI41320000
(dp6108
sI3530000
(dp6109
sI36830000
(dp6110
sI49840000
(dp6111
sI21960000
(dp6112
sI20040000
(dp6113
sI32340000
(dp6114
sI53060000
(dp6115
sI27850000
(dp6116
sI25690000
(dp6117
sI23360000
(dp6118
sI18870000
(dp6119
sI1540000
(dp6120
sI34390000
(dp6121
sI58370000
(dp6122
sI14380000
(dp6123
sI9890000
(dp6124
sI18350000
(dp6125
sI910000
(dp6126
sI14680000
(dp6127
sI46820000
(dp6128
sI40410000
(dp6129
sI48540000
(dp6130
sI51970000
(dp6131
sI31430000
(dp6132
sI26940000
(dp6133
sI27820000
(dp6134
sI49010000
(dp6135
sI17960000
(dp6136
sI13470000
(dp6137
sI24150000
(dp6138
sI5010000
(dp6139
sI52970000
(dp6140
sI8980000
(dp6141
sI4490000
(dp6142
sssb.